
AVRASM ver. 2.1.30  E:\AUT\6th semester\Micro Lab\project\SD Pure\SD Pure\Debug\List\sd.asm Wed Jun 21 19:00:42 2017

E:\AUT\6th semester\Micro Lab\project\SD Pure\SD Pure\Debug\List\sd.asm(1087): warning: Register r5 already defined by the .DEF directive
E:\AUT\6th semester\Micro Lab\project\SD Pure\SD Pure\Debug\List\sd.asm(1088): warning: Register r6 already defined by the .DEF directive
E:\AUT\6th semester\Micro Lab\project\SD Pure\SD Pure\Debug\List\sd.asm(1089): warning: Register r7 already defined by the .DEF directive
E:\AUT\6th semester\Micro Lab\project\SD Pure\SD Pure\Debug\List\sd.asm(1090): warning: Register r4 already defined by the .DEF directive
E:\AUT\6th semester\Micro Lab\project\SD Pure\SD Pure\Debug\List\sd.asm(1091): warning: Register r9 already defined by the .DEF directive
E:\AUT\6th semester\Micro Lab\project\SD Pure\SD Pure\Debug\List\sd.asm(1092): warning: Register r8 already defined by the .DEF directive
E:\AUT\6th semester\Micro Lab\project\SD Pure\SD Pure\Debug\List\sd.asm(1093): warning: Register r11 already defined by the .DEF directive
                 
                 
                 ;CodeVisionAVR C Compiler V3.12 Advanced
                 ;(C) Copyright 1998-2014 Pavel Haiduc, HP InfoTech s.r.l.
                 ;http://www.hpinfotech.com
                 
                 ;Build configuration    : Debug
                 ;Chip type              : ATmega32A
                 ;Program type           : Application
                 ;Clock frequency        : 8.000000 MHz
                 ;Memory model           : Small
                 ;Optimize for           : Size
                 ;(s)printf features     : int, width
                 ;(s)scanf features      : int, width
                 ;External RAM size      : 0
                 ;Data Stack size        : 512 byte(s)
                 ;Heap size              : 0 byte(s)
                 ;Promote 'char' to 'int': Yes
                 ;'char' is unsigned     : Yes
                 ;8 bit enums            : Yes
                 ;Global 'const' stored in FLASH: Yes
                 ;Enhanced function parameter passing: Yes
                 ;Enhanced core instructions: On
                 ;Automatic register allocation for global variables: On
                 ;Smart register allocation: On
                 
                 	#define _MODEL_SMALL_
                 
                 	#pragma AVRPART ADMIN PART_NAME ATmega32A
                 	#pragma AVRPART MEMORY PROG_FLASH 32768
                 	#pragma AVRPART MEMORY EEPROM 1024
                 	#pragma AVRPART MEMORY INT_SRAM SIZE 2048
                 	#pragma AVRPART MEMORY INT_SRAM START_ADDR 0x60
                 
                 	#define CALL_SUPPORTED 1
                 
                 	.LISTMAC
                 	.EQU UDRE=0x5
                 	.EQU RXC=0x7
                 	.EQU USR=0xB
                 	.EQU UDR=0xC
                 	.EQU SPSR=0xE
                 	.EQU SPDR=0xF
                 	.EQU EERE=0x0
                 	.EQU EEWE=0x1
                 	.EQU EEMWE=0x2
                 	.EQU EECR=0x1C
                 	.EQU EEDR=0x1D
                 	.EQU EEARL=0x1E
                 	.EQU EEARH=0x1F
                 	.EQU WDTCR=0x21
                 	.EQU MCUCR=0x35
                 	.EQU SPL=0x3D
                 	.EQU SPH=0x3E
                 	.EQU SREG=0x3F
                 
                 	.DEF R0X0=R0
                 	.DEF R0X1=R1
                 	.DEF R0X2=R2
                 	.DEF R0X3=R3
                 	.DEF R0X4=R4
                 	.DEF R0X5=R5
                 	.DEF R0X6=R6
                 	.DEF R0X7=R7
                 	.DEF R0X8=R8
                 	.DEF R0X9=R9
                 	.DEF R0XA=R10
                 	.DEF R0XB=R11
                 	.DEF R0XC=R12
                 	.DEF R0XD=R13
                 	.DEF R0XE=R14
                 	.DEF R0XF=R15
                 	.DEF R0X10=R16
                 	.DEF R0X11=R17
                 	.DEF R0X12=R18
                 	.DEF R0X13=R19
                 	.DEF R0X14=R20
                 	.DEF R0X15=R21
                 	.DEF R0X16=R22
                 	.DEF R0X17=R23
                 	.DEF R0X18=R24
                 	.DEF R0X19=R25
                 	.DEF R0X1A=R26
                 	.DEF R0X1B=R27
                 	.DEF R0X1C=R28
                 	.DEF R0X1D=R29
                 	.DEF R0X1E=R30
                 	.DEF R0X1F=R31
                 
                 	.EQU __SRAM_START=0x0060
                 	.EQU __SRAM_END=0x085F
                 	.EQU __DSTACK_SIZE=0x0200
                 	.EQU __HEAP_SIZE=0x0000
                 	.EQU __CLEAR_SRAM_SIZE=__SRAM_END-__SRAM_START+1
                 
                 	.MACRO __CPD1N
                 	CPI  R30,LOW(@0)
                 	LDI  R26,HIGH(@0)
                 	CPC  R31,R26
                 	LDI  R26,BYTE3(@0)
                 	CPC  R22,R26
                 	LDI  R26,BYTE4(@0)
                 	CPC  R23,R26
                 	.ENDM
                 
                 	.MACRO __CPD2N
                 	CPI  R26,LOW(@0)
                 	LDI  R30,HIGH(@0)
                 	CPC  R27,R30
                 	LDI  R30,BYTE3(@0)
                 	CPC  R24,R30
                 	LDI  R30,BYTE4(@0)
                 	CPC  R25,R30
                 	.ENDM
                 
                 	.MACRO __CPWRR
                 	CP   R@0,R@2
                 	CPC  R@1,R@3
                 	.ENDM
                 
                 	.MACRO __CPWRN
                 	CPI  R@0,LOW(@2)
                 	LDI  R30,HIGH(@2)
                 	CPC  R@1,R30
                 	.ENDM
                 
                 	.MACRO __ADDB1MN
                 	SUBI R30,LOW(-@0-(@1))
                 	.ENDM
                 
                 	.MACRO __ADDB2MN
                 	SUBI R26,LOW(-@0-(@1))
                 	.ENDM
                 
                 	.MACRO __ADDW1MN
                 	SUBI R30,LOW(-@0-(@1))
                 	SBCI R31,HIGH(-@0-(@1))
                 	.ENDM
                 
                 	.MACRO __ADDW2MN
                 	SUBI R26,LOW(-@0-(@1))
                 	SBCI R27,HIGH(-@0-(@1))
                 	.ENDM
                 
                 	.MACRO __ADDW1FN
                 	SUBI R30,LOW(-2*@0-(@1))
                 	SBCI R31,HIGH(-2*@0-(@1))
                 	.ENDM
                 
                 	.MACRO __ADDD1FN
                 	SUBI R30,LOW(-2*@0-(@1))
                 	SBCI R31,HIGH(-2*@0-(@1))
                 	SBCI R22,BYTE3(-2*@0-(@1))
                 	.ENDM
                 
                 	.MACRO __ADDD1N
                 	SUBI R30,LOW(-@0)
                 	SBCI R31,HIGH(-@0)
                 	SBCI R22,BYTE3(-@0)
                 	SBCI R23,BYTE4(-@0)
                 	.ENDM
                 
                 	.MACRO __ADDD2N
                 	SUBI R26,LOW(-@0)
                 	SBCI R27,HIGH(-@0)
                 	SBCI R24,BYTE3(-@0)
                 	SBCI R25,BYTE4(-@0)
                 	.ENDM
                 
                 	.MACRO __SUBD1N
                 	SUBI R30,LOW(@0)
                 	SBCI R31,HIGH(@0)
                 	SBCI R22,BYTE3(@0)
                 	SBCI R23,BYTE4(@0)
                 	.ENDM
                 
                 	.MACRO __SUBD2N
                 	SUBI R26,LOW(@0)
                 	SBCI R27,HIGH(@0)
                 	SBCI R24,BYTE3(@0)
                 	SBCI R25,BYTE4(@0)
                 	.ENDM
                 
                 	.MACRO __ANDBMNN
                 	LDS  R30,@0+(@1)
                 	ANDI R30,LOW(@2)
                 	STS  @0+(@1),R30
                 	.ENDM
                 
                 	.MACRO __ANDWMNN
                 	LDS  R30,@0+(@1)
                 	ANDI R30,LOW(@2)
                 	STS  @0+(@1),R30
                 	LDS  R30,@0+(@1)+1
                 	ANDI R30,HIGH(@2)
                 	STS  @0+(@1)+1,R30
                 	.ENDM
                 
                 	.MACRO __ANDD1N
                 	ANDI R30,LOW(@0)
                 	ANDI R31,HIGH(@0)
                 	ANDI R22,BYTE3(@0)
                 	ANDI R23,BYTE4(@0)
                 	.ENDM
                 
                 	.MACRO __ANDD2N
                 	ANDI R26,LOW(@0)
                 	ANDI R27,HIGH(@0)
                 	ANDI R24,BYTE3(@0)
                 	ANDI R25,BYTE4(@0)
                 	.ENDM
                 
                 	.MACRO __ORBMNN
                 	LDS  R30,@0+(@1)
                 	ORI  R30,LOW(@2)
                 	STS  @0+(@1),R30
                 	.ENDM
                 
                 	.MACRO __ORWMNN
                 	LDS  R30,@0+(@1)
                 	ORI  R30,LOW(@2)
                 	STS  @0+(@1),R30
                 	LDS  R30,@0+(@1)+1
                 	ORI  R30,HIGH(@2)
                 	STS  @0+(@1)+1,R30
                 	.ENDM
                 
                 	.MACRO __ORD1N
                 	ORI  R30,LOW(@0)
                 	ORI  R31,HIGH(@0)
                 	ORI  R22,BYTE3(@0)
                 	ORI  R23,BYTE4(@0)
                 	.ENDM
                 
                 	.MACRO __ORD2N
                 	ORI  R26,LOW(@0)
                 	ORI  R27,HIGH(@0)
                 	ORI  R24,BYTE3(@0)
                 	ORI  R25,BYTE4(@0)
                 	.ENDM
                 
                 	.MACRO __DELAY_USB
                 	LDI  R24,LOW(@0)
                 __DELAY_USB_LOOP:
                 	DEC  R24
                 	BRNE __DELAY_USB_LOOP
                 	.ENDM
                 
                 	.MACRO __DELAY_USW
                 	LDI  R24,LOW(@0)
                 	LDI  R25,HIGH(@0)
                 __DELAY_USW_LOOP:
                 	SBIW R24,1
                 	BRNE __DELAY_USW_LOOP
                 	.ENDM
                 
                 	.MACRO __GETD1S
                 	LDD  R30,Y+@0
                 	LDD  R31,Y+@0+1
                 	LDD  R22,Y+@0+2
                 	LDD  R23,Y+@0+3
                 	.ENDM
                 
                 	.MACRO __GETD2S
                 	LDD  R26,Y+@0
                 	LDD  R27,Y+@0+1
                 	LDD  R24,Y+@0+2
                 	LDD  R25,Y+@0+3
                 	.ENDM
                 
                 	.MACRO __PUTD1S
                 	STD  Y+@0,R30
                 	STD  Y+@0+1,R31
                 	STD  Y+@0+2,R22
                 	STD  Y+@0+3,R23
                 	.ENDM
                 
                 	.MACRO __PUTD2S
                 	STD  Y+@0,R26
                 	STD  Y+@0+1,R27
                 	STD  Y+@0+2,R24
                 	STD  Y+@0+3,R25
                 	.ENDM
                 
                 	.MACRO __PUTDZ2
                 	STD  Z+@0,R26
                 	STD  Z+@0+1,R27
                 	STD  Z+@0+2,R24
                 	STD  Z+@0+3,R25
                 	.ENDM
                 
                 	.MACRO __CLRD1S
                 	STD  Y+@0,R30
                 	STD  Y+@0+1,R30
                 	STD  Y+@0+2,R30
                 	STD  Y+@0+3,R30
                 	.ENDM
                 
                 	.MACRO __POINTB1MN
                 	LDI  R30,LOW(@0+(@1))
                 	.ENDM
                 
                 	.MACRO __POINTW1MN
                 	LDI  R30,LOW(@0+(@1))
                 	LDI  R31,HIGH(@0+(@1))
                 	.ENDM
                 
                 	.MACRO __POINTD1M
                 	LDI  R30,LOW(@0)
                 	LDI  R31,HIGH(@0)
                 	LDI  R22,BYTE3(@0)
                 	LDI  R23,BYTE4(@0)
                 	.ENDM
                 
                 	.MACRO __POINTW1FN
                 	LDI  R30,LOW(2*@0+(@1))
                 	LDI  R31,HIGH(2*@0+(@1))
                 	.ENDM
                 
                 	.MACRO __POINTD1FN
                 	LDI  R30,LOW(2*@0+(@1))
                 	LDI  R31,HIGH(2*@0+(@1))
                 	LDI  R22,BYTE3(2*@0+(@1))
                 	LDI  R23,BYTE4(2*@0+(@1))
                 	.ENDM
                 
                 	.MACRO __POINTB2MN
                 	LDI  R26,LOW(@0+(@1))
                 	.ENDM
                 
                 	.MACRO __POINTW2MN
                 	LDI  R26,LOW(@0+(@1))
                 	LDI  R27,HIGH(@0+(@1))
                 	.ENDM
                 
                 	.MACRO __POINTW2FN
                 	LDI  R26,LOW(2*@0+(@1))
                 	LDI  R27,HIGH(2*@0+(@1))
                 	.ENDM
                 
                 	.MACRO __POINTD2FN
                 	LDI  R26,LOW(2*@0+(@1))
                 	LDI  R27,HIGH(2*@0+(@1))
                 	LDI  R24,BYTE3(2*@0+(@1))
                 	LDI  R25,BYTE4(2*@0+(@1))
                 	.ENDM
                 
                 	.MACRO __POINTBRM
                 	LDI  R@0,LOW(@1)
                 	.ENDM
                 
                 	.MACRO __POINTWRM
                 	LDI  R@0,LOW(@2)
                 	LDI  R@1,HIGH(@2)
                 	.ENDM
                 
                 	.MACRO __POINTBRMN
                 	LDI  R@0,LOW(@1+(@2))
                 	.ENDM
                 
                 	.MACRO __POINTWRMN
                 	LDI  R@0,LOW(@2+(@3))
                 	LDI  R@1,HIGH(@2+(@3))
                 	.ENDM
                 
                 	.MACRO __POINTWRFN
                 	LDI  R@0,LOW(@2*2+(@3))
                 	LDI  R@1,HIGH(@2*2+(@3))
                 	.ENDM
                 
                 	.MACRO __GETD1N
                 	LDI  R30,LOW(@0)
                 	LDI  R31,HIGH(@0)
                 	LDI  R22,BYTE3(@0)
                 	LDI  R23,BYTE4(@0)
                 	.ENDM
                 
                 	.MACRO __GETD2N
                 	LDI  R26,LOW(@0)
                 	LDI  R27,HIGH(@0)
                 	LDI  R24,BYTE3(@0)
                 	LDI  R25,BYTE4(@0)
                 	.ENDM
                 
                 	.MACRO __GETB1MN
                 	LDS  R30,@0+(@1)
                 	.ENDM
                 
                 	.MACRO __GETB1HMN
                 	LDS  R31,@0+(@1)
                 	.ENDM
                 
                 	.MACRO __GETW1MN
                 	LDS  R30,@0+(@1)
                 	LDS  R31,@0+(@1)+1
                 	.ENDM
                 
                 	.MACRO __GETD1MN
                 	LDS  R30,@0+(@1)
                 	LDS  R31,@0+(@1)+1
                 	LDS  R22,@0+(@1)+2
                 	LDS  R23,@0+(@1)+3
                 	.ENDM
                 
                 	.MACRO __GETBRMN
                 	LDS  R@0,@1+(@2)
                 	.ENDM
                 
                 	.MACRO __GETWRMN
                 	LDS  R@0,@2+(@3)
                 	LDS  R@1,@2+(@3)+1
                 	.ENDM
                 
                 	.MACRO __GETWRZ
                 	LDD  R@0,Z+@2
                 	LDD  R@1,Z+@2+1
                 	.ENDM
                 
                 	.MACRO __GETD2Z
                 	LDD  R26,Z+@0
                 	LDD  R27,Z+@0+1
                 	LDD  R24,Z+@0+2
                 	LDD  R25,Z+@0+3
                 	.ENDM
                 
                 	.MACRO __GETB2MN
                 	LDS  R26,@0+(@1)
                 	.ENDM
                 
                 	.MACRO __GETW2MN
                 	LDS  R26,@0+(@1)
                 	LDS  R27,@0+(@1)+1
                 	.ENDM
                 
                 	.MACRO __GETD2MN
                 	LDS  R26,@0+(@1)
                 	LDS  R27,@0+(@1)+1
                 	LDS  R24,@0+(@1)+2
                 	LDS  R25,@0+(@1)+3
                 	.ENDM
                 
                 	.MACRO __PUTB1MN
                 	STS  @0+(@1),R30
                 	.ENDM
                 
                 	.MACRO __PUTW1MN
                 	STS  @0+(@1),R30
                 	STS  @0+(@1)+1,R31
                 	.ENDM
                 
                 	.MACRO __PUTD1MN
                 	STS  @0+(@1),R30
                 	STS  @0+(@1)+1,R31
                 	STS  @0+(@1)+2,R22
                 	STS  @0+(@1)+3,R23
                 	.ENDM
                 
                 	.MACRO __PUTB1EN
                 	LDI  R26,LOW(@0+(@1))
                 	LDI  R27,HIGH(@0+(@1))
                 	CALL __EEPROMWRB
                 	.ENDM
                 
                 	.MACRO __PUTW1EN
                 	LDI  R26,LOW(@0+(@1))
                 	LDI  R27,HIGH(@0+(@1))
                 	CALL __EEPROMWRW
                 	.ENDM
                 
                 	.MACRO __PUTD1EN
                 	LDI  R26,LOW(@0+(@1))
                 	LDI  R27,HIGH(@0+(@1))
                 	CALL __EEPROMWRD
                 	.ENDM
                 
                 	.MACRO __PUTBR0MN
                 	STS  @0+(@1),R0
                 	.ENDM
                 
                 	.MACRO __PUTBMRN
                 	STS  @0+(@1),R@2
                 	.ENDM
                 
                 	.MACRO __PUTWMRN
                 	STS  @0+(@1),R@2
                 	STS  @0+(@1)+1,R@3
                 	.ENDM
                 
                 	.MACRO __PUTBZR
                 	STD  Z+@1,R@0
                 	.ENDM
                 
                 	.MACRO __PUTWZR
                 	STD  Z+@2,R@0
                 	STD  Z+@2+1,R@1
                 	.ENDM
                 
                 	.MACRO __GETW1R
                 	MOV  R30,R@0
                 	MOV  R31,R@1
                 	.ENDM
                 
                 	.MACRO __GETW2R
                 	MOV  R26,R@0
                 	MOV  R27,R@1
                 	.ENDM
                 
                 	.MACRO __GETWRN
                 	LDI  R@0,LOW(@2)
                 	LDI  R@1,HIGH(@2)
                 	.ENDM
                 
                 	.MACRO __PUTW1R
                 	MOV  R@0,R30
                 	MOV  R@1,R31
                 	.ENDM
                 
                 	.MACRO __PUTW2R
                 	MOV  R@0,R26
                 	MOV  R@1,R27
                 	.ENDM
                 
                 	.MACRO __ADDWRN
                 	SUBI R@0,LOW(-@2)
                 	SBCI R@1,HIGH(-@2)
                 	.ENDM
                 
                 	.MACRO __ADDWRR
                 	ADD  R@0,R@2
                 	ADC  R@1,R@3
                 	.ENDM
                 
                 	.MACRO __SUBWRN
                 	SUBI R@0,LOW(@2)
                 	SBCI R@1,HIGH(@2)
                 	.ENDM
                 
                 	.MACRO __SUBWRR
                 	SUB  R@0,R@2
                 	SBC  R@1,R@3
                 	.ENDM
                 
                 	.MACRO __ANDWRN
                 	ANDI R@0,LOW(@2)
                 	ANDI R@1,HIGH(@2)
                 	.ENDM
                 
                 	.MACRO __ANDWRR
                 	AND  R@0,R@2
                 	AND  R@1,R@3
                 	.ENDM
                 
                 	.MACRO __ORWRN
                 	ORI  R@0,LOW(@2)
                 	ORI  R@1,HIGH(@2)
                 	.ENDM
                 
                 	.MACRO __ORWRR
                 	OR   R@0,R@2
                 	OR   R@1,R@3
                 	.ENDM
                 
                 	.MACRO __EORWRR
                 	EOR  R@0,R@2
                 	EOR  R@1,R@3
                 	.ENDM
                 
                 	.MACRO __GETWRS
                 	LDD  R@0,Y+@2
                 	LDD  R@1,Y+@2+1
                 	.ENDM
                 
                 	.MACRO __PUTBSR
                 	STD  Y+@1,R@0
                 	.ENDM
                 
                 	.MACRO __PUTWSR
                 	STD  Y+@2,R@0
                 	STD  Y+@2+1,R@1
                 	.ENDM
                 
                 	.MACRO __MOVEWRR
                 	MOV  R@0,R@2
                 	MOV  R@1,R@3
                 	.ENDM
                 
                 	.MACRO __INWR
                 	IN   R@0,@2
                 	IN   R@1,@2+1
                 	.ENDM
                 
                 	.MACRO __OUTWR
                 	OUT  @2+1,R@1
                 	OUT  @2,R@0
                 	.ENDM
                 
                 	.MACRO __CALL1MN
                 	LDS  R30,@0+(@1)
                 	LDS  R31,@0+(@1)+1
                 	ICALL
                 	.ENDM
                 
                 	.MACRO __CALL1FN
                 	LDI  R30,LOW(2*@0+(@1))
                 	LDI  R31,HIGH(2*@0+(@1))
                 	CALL __GETW1PF
                 	ICALL
                 	.ENDM
                 
                 	.MACRO __CALL2EN
                 	PUSH R26
                 	PUSH R27
                 	LDI  R26,LOW(@0+(@1))
                 	LDI  R27,HIGH(@0+(@1))
                 	CALL __EEPROMRDW
                 	POP  R27
                 	POP  R26
                 	ICALL
                 	.ENDM
                 
                 	.MACRO __CALL2EX
                 	SUBI R26,LOW(-@0)
                 	SBCI R27,HIGH(-@0)
                 	CALL __EEPROMRDD
                 	ICALL
                 	.ENDM
                 
                 	.MACRO __GETW1STACK
                 	IN   R30,SPL
                 	IN   R31,SPH
                 	ADIW R30,@0+1
                 	LD   R0,Z+
                 	LD   R31,Z
                 	MOV  R30,R0
                 	.ENDM
                 
                 	.MACRO __GETD1STACK
                 	IN   R30,SPL
                 	IN   R31,SPH
                 	ADIW R30,@0+1
                 	LD   R0,Z+
                 	LD   R1,Z+
                 	LD   R22,Z
                 	MOVW R30,R0
                 	.ENDM
                 
                 	.MACRO __NBST
                 	BST  R@0,@1
                 	IN   R30,SREG
                 	LDI  R31,0x40
                 	EOR  R30,R31
                 	OUT  SREG,R30
                 	.ENDM
                 
                 
                 	.MACRO __PUTB1SN
                 	LDD  R26,Y+@0
                 	LDD  R27,Y+@0+1
                 	SUBI R26,LOW(-@1)
                 	SBCI R27,HIGH(-@1)
                 	ST   X,R30
                 	.ENDM
                 
                 	.MACRO __PUTW1SN
                 	LDD  R26,Y+@0
                 	LDD  R27,Y+@0+1
                 	SUBI R26,LOW(-@1)
                 	SBCI R27,HIGH(-@1)
                 	ST   X+,R30
                 	ST   X,R31
                 	.ENDM
                 
                 	.MACRO __PUTD1SN
                 	LDD  R26,Y+@0
                 	LDD  R27,Y+@0+1
                 	SUBI R26,LOW(-@1)
                 	SBCI R27,HIGH(-@1)
                 	CALL __PUTDP1
                 	.ENDM
                 
                 	.MACRO __PUTB1SNS
                 	LDD  R26,Y+@0
                 	LDD  R27,Y+@0+1
                 	ADIW R26,@1
                 	ST   X,R30
                 	.ENDM
                 
                 	.MACRO __PUTW1SNS
                 	LDD  R26,Y+@0
                 	LDD  R27,Y+@0+1
                 	ADIW R26,@1
                 	ST   X+,R30
                 	ST   X,R31
                 	.ENDM
                 
                 	.MACRO __PUTD1SNS
                 	LDD  R26,Y+@0
                 	LDD  R27,Y+@0+1
                 	ADIW R26,@1
                 	CALL __PUTDP1
                 	.ENDM
                 
                 	.MACRO __PUTB1PMN
                 	LDS  R26,@0
                 	LDS  R27,@0+1
                 	SUBI R26,LOW(-@1)
                 	SBCI R27,HIGH(-@1)
                 	ST   X,R30
                 	.ENDM
                 
                 	.MACRO __PUTW1PMN
                 	LDS  R26,@0
                 	LDS  R27,@0+1
                 	SUBI R26,LOW(-@1)
                 	SBCI R27,HIGH(-@1)
                 	ST   X+,R30
                 	ST   X,R31
                 	.ENDM
                 
                 	.MACRO __PUTD1PMN
                 	LDS  R26,@0
                 	LDS  R27,@0+1
                 	SUBI R26,LOW(-@1)
                 	SBCI R27,HIGH(-@1)
                 	CALL __PUTDP1
                 	.ENDM
                 
                 	.MACRO __PUTB1PMNS
                 	LDS  R26,@0
                 	LDS  R27,@0+1
                 	ADIW R26,@1
                 	ST   X,R30
                 	.ENDM
                 
                 	.MACRO __PUTW1PMNS
                 	LDS  R26,@0
                 	LDS  R27,@0+1
                 	ADIW R26,@1
                 	ST   X+,R30
                 	ST   X,R31
                 	.ENDM
                 
                 	.MACRO __PUTD1PMNS
                 	LDS  R26,@0
                 	LDS  R27,@0+1
                 	ADIW R26,@1
                 	CALL __PUTDP1
                 	.ENDM
                 
                 	.MACRO __PUTB1RN
                 	MOVW R26,R@0
                 	SUBI R26,LOW(-@1)
                 	SBCI R27,HIGH(-@1)
                 	ST   X,R30
                 	.ENDM
                 
                 	.MACRO __PUTW1RN
                 	MOVW R26,R@0
                 	SUBI R26,LOW(-@1)
                 	SBCI R27,HIGH(-@1)
                 	ST   X+,R30
                 	ST   X,R31
                 	.ENDM
                 
                 	.MACRO __PUTD1RN
                 	MOVW R26,R@0
                 	SUBI R26,LOW(-@1)
                 	SBCI R27,HIGH(-@1)
                 	CALL __PUTDP1
                 	.ENDM
                 
                 	.MACRO __PUTB1RNS
                 	MOVW R26,R@0
                 	ADIW R26,@1
                 	ST   X,R30
                 	.ENDM
                 
                 	.MACRO __PUTW1RNS
                 	MOVW R26,R@0
                 	ADIW R26,@1
                 	ST   X+,R30
                 	ST   X,R31
                 	.ENDM
                 
                 	.MACRO __PUTD1RNS
                 	MOVW R26,R@0
                 	ADIW R26,@1
                 	CALL __PUTDP1
                 	.ENDM
                 
                 	.MACRO __PUTB1RON
                 	MOV  R26,R@0
                 	MOV  R27,R@1
                 	SUBI R26,LOW(-@2)
                 	SBCI R27,HIGH(-@2)
                 	ST   X,R30
                 	.ENDM
                 
                 	.MACRO __PUTW1RON
                 	MOV  R26,R@0
                 	MOV  R27,R@1
                 	SUBI R26,LOW(-@2)
                 	SBCI R27,HIGH(-@2)
                 	ST   X+,R30
                 	ST   X,R31
                 	.ENDM
                 
                 	.MACRO __PUTD1RON
                 	MOV  R26,R@0
                 	MOV  R27,R@1
                 	SUBI R26,LOW(-@2)
                 	SBCI R27,HIGH(-@2)
                 	CALL __PUTDP1
                 	.ENDM
                 
                 	.MACRO __PUTB1RONS
                 	MOV  R26,R@0
                 	MOV  R27,R@1
                 	ADIW R26,@2
                 	ST   X,R30
                 	.ENDM
                 
                 	.MACRO __PUTW1RONS
                 	MOV  R26,R@0
                 	MOV  R27,R@1
                 	ADIW R26,@2
                 	ST   X+,R30
                 	ST   X,R31
                 	.ENDM
                 
                 	.MACRO __PUTD1RONS
                 	MOV  R26,R@0
                 	MOV  R27,R@1
                 	ADIW R26,@2
                 	CALL __PUTDP1
                 	.ENDM
                 
                 
                 	.MACRO __GETB1SX
                 	MOVW R30,R28
                 	SUBI R30,LOW(-@0)
                 	SBCI R31,HIGH(-@0)
                 	LD   R30,Z
                 	.ENDM
                 
                 	.MACRO __GETB1HSX
                 	MOVW R30,R28
                 	SUBI R30,LOW(-@0)
                 	SBCI R31,HIGH(-@0)
                 	LD   R31,Z
                 	.ENDM
                 
                 	.MACRO __GETW1SX
                 	MOVW R30,R28
                 	SUBI R30,LOW(-@0)
                 	SBCI R31,HIGH(-@0)
                 	LD   R0,Z+
                 	LD   R31,Z
                 	MOV  R30,R0
                 	.ENDM
                 
                 	.MACRO __GETD1SX
                 	MOVW R30,R28
                 	SUBI R30,LOW(-@0)
                 	SBCI R31,HIGH(-@0)
                 	LD   R0,Z+
                 	LD   R1,Z+
                 	LD   R22,Z+
                 	LD   R23,Z
                 	MOVW R30,R0
                 	.ENDM
                 
                 	.MACRO __GETB2SX
                 	MOVW R26,R28
                 	SUBI R26,LOW(-@0)
                 	SBCI R27,HIGH(-@0)
                 	LD   R26,X
                 	.ENDM
                 
                 	.MACRO __GETW2SX
                 	MOVW R26,R28
                 	SUBI R26,LOW(-@0)
                 	SBCI R27,HIGH(-@0)
                 	LD   R0,X+
                 	LD   R27,X
                 	MOV  R26,R0
                 	.ENDM
                 
                 	.MACRO __GETD2SX
                 	MOVW R26,R28
                 	SUBI R26,LOW(-@0)
                 	SBCI R27,HIGH(-@0)
                 	LD   R0,X+
                 	LD   R1,X+
                 	LD   R24,X+
                 	LD   R25,X
                 	MOVW R26,R0
                 	.ENDM
                 
                 	.MACRO __GETBRSX
                 	MOVW R30,R28
                 	SUBI R30,LOW(-@1)
                 	SBCI R31,HIGH(-@1)
                 	LD   R@0,Z
                 	.ENDM
                 
                 	.MACRO __GETWRSX
                 	MOVW R30,R28
                 	SUBI R30,LOW(-@2)
                 	SBCI R31,HIGH(-@2)
                 	LD   R@0,Z+
                 	LD   R@1,Z
                 	.ENDM
                 
                 	.MACRO __GETBRSX2
                 	MOVW R26,R28
                 	SUBI R26,LOW(-@1)
                 	SBCI R27,HIGH(-@1)
                 	LD   R@0,X
                 	.ENDM
                 
                 	.MACRO __GETWRSX2
                 	MOVW R26,R28
                 	SUBI R26,LOW(-@2)
                 	SBCI R27,HIGH(-@2)
                 	LD   R@0,X+
                 	LD   R@1,X
                 	.ENDM
                 
                 	.MACRO __LSLW8SX
                 	MOVW R30,R28
                 	SUBI R30,LOW(-@0)
                 	SBCI R31,HIGH(-@0)
                 	LD   R31,Z
                 	CLR  R30
                 	.ENDM
                 
                 	.MACRO __PUTB1SX
                 	MOVW R26,R28
                 	SUBI R26,LOW(-@0)
                 	SBCI R27,HIGH(-@0)
                 	ST   X,R30
                 	.ENDM
                 
                 	.MACRO __PUTW1SX
                 	MOVW R26,R28
                 	SUBI R26,LOW(-@0)
                 	SBCI R27,HIGH(-@0)
                 	ST   X+,R30
                 	ST   X,R31
                 	.ENDM
                 
                 	.MACRO __PUTD1SX
                 	MOVW R26,R28
                 	SUBI R26,LOW(-@0)
                 	SBCI R27,HIGH(-@0)
                 	ST   X+,R30
                 	ST   X+,R31
                 	ST   X+,R22
                 	ST   X,R23
                 	.ENDM
                 
                 	.MACRO __CLRW1SX
                 	MOVW R26,R28
                 	SUBI R26,LOW(-@0)
                 	SBCI R27,HIGH(-@0)
                 	ST   X+,R30
                 	ST   X,R30
                 	.ENDM
                 
                 	.MACRO __CLRD1SX
                 	MOVW R26,R28
                 	SUBI R26,LOW(-@0)
                 	SBCI R27,HIGH(-@0)
                 	ST   X+,R30
                 	ST   X+,R30
                 	ST   X+,R30
                 	ST   X,R30
                 	.ENDM
                 
                 	.MACRO __PUTB2SX
                 	MOVW R30,R28
                 	SUBI R30,LOW(-@0)
                 	SBCI R31,HIGH(-@0)
                 	ST   Z,R26
                 	.ENDM
                 
                 	.MACRO __PUTW2SX
                 	MOVW R30,R28
                 	SUBI R30,LOW(-@0)
                 	SBCI R31,HIGH(-@0)
                 	ST   Z+,R26
                 	ST   Z,R27
                 	.ENDM
                 
                 	.MACRO __PUTD2SX
                 	MOVW R30,R28
                 	SUBI R30,LOW(-@0)
                 	SBCI R31,HIGH(-@0)
                 	ST   Z+,R26
                 	ST   Z+,R27
                 	ST   Z+,R24
                 	ST   Z,R25
                 	.ENDM
                 
                 	.MACRO __PUTBSRX
                 	MOVW R30,R28
                 	SUBI R30,LOW(-@1)
                 	SBCI R31,HIGH(-@1)
                 	ST   Z,R@0
                 	.ENDM
                 
                 	.MACRO __PUTWSRX
                 	MOVW R30,R28
                 	SUBI R30,LOW(-@2)
                 	SBCI R31,HIGH(-@2)
                 	ST   Z+,R@0
                 	ST   Z,R@1
                 	.ENDM
                 
                 	.MACRO __PUTB1SNX
                 	MOVW R26,R28
                 	SUBI R26,LOW(-@0)
                 	SBCI R27,HIGH(-@0)
                 	LD   R0,X+
                 	LD   R27,X
                 	MOV  R26,R0
                 	SUBI R26,LOW(-@1)
                 	SBCI R27,HIGH(-@1)
                 	ST   X,R30
                 	.ENDM
                 
                 	.MACRO __PUTW1SNX
                 	MOVW R26,R28
                 	SUBI R26,LOW(-@0)
                 	SBCI R27,HIGH(-@0)
                 	LD   R0,X+
                 	LD   R27,X
                 	MOV  R26,R0
                 	SUBI R26,LOW(-@1)
                 	SBCI R27,HIGH(-@1)
                 	ST   X+,R30
                 	ST   X,R31
                 	.ENDM
                 
                 	.MACRO __PUTD1SNX
                 	MOVW R26,R28
                 	SUBI R26,LOW(-@0)
                 	SBCI R27,HIGH(-@0)
                 	LD   R0,X+
                 	LD   R27,X
                 	MOV  R26,R0
                 	SUBI R26,LOW(-@1)
                 	SBCI R27,HIGH(-@1)
                 	ST   X+,R30
                 	ST   X+,R31
                 	ST   X+,R22
                 	ST   X,R23
                 	.ENDM
                 
                 	.MACRO __MULBRR
                 	MULS R@0,R@1
                 	MOVW R30,R0
                 	.ENDM
                 
                 	.MACRO __MULBRRU
                 	MUL  R@0,R@1
                 	MOVW R30,R0
                 	.ENDM
                 
                 	.MACRO __MULBRR0
                 	MULS R@0,R@1
                 	.ENDM
                 
                 	.MACRO __MULBRRU0
                 	MUL  R@0,R@1
                 	.ENDM
                 
                 	.MACRO __MULBNWRU
                 	LDI  R26,@2
                 	MUL  R26,R@0
                 	MOVW R30,R0
                 	MUL  R26,R@1
                 	ADD  R31,R0
                 	.ENDM
                 
                 ;NAME DEFINITIONS FOR GLOBAL VARIABLES ALLOCATED TO REGISTERS
                 	.DEF _res=R5
                 	.DEF _nbytes=R6
                 	.DEF _nbytes_msb=R7
                 	.DEF _dres=R4
                 	.DEF __lcd_x=R9
                 	.DEF __lcd_y=R8
                 	.DEF __lcd_maxx=R11
                 
                 	.CSEG
                 	.ORG 0x00
                 
                 ;START OF CODE MARKER
                 __START_OF_CODE:
                 
                 ;INTERRUPT VECTORS
000000 940c 00ab 	JMP  __RESET
000002 940c 0000 	JMP  0x00
000004 940c 0000 	JMP  0x00
000006 940c 0000 	JMP  0x00
000008 940c 0000 	JMP  0x00
00000a 940c 0000 	JMP  0x00
00000c 940c 0000 	JMP  0x00
00000e 940c 0000 	JMP  0x00
000010 940c 0000 	JMP  0x00
000012 940c 0000 	JMP  0x00
000014 940c 0000 	JMP  0x00
000016 940c 00d7 	JMP  _timer0_ovf_isr
000018 940c 0000 	JMP  0x00
00001a 940c 0000 	JMP  0x00
00001c 940c 0000 	JMP  0x00
00001e 940c 0000 	JMP  0x00
000020 940c 0000 	JMP  0x00
000022 940c 0000 	JMP  0x00
000024 940c 0000 	JMP  0x00
000026 940c 0000 	JMP  0x00
000028 940c 0000 	JMP  0x00
                 
                 _k1:
00002a 2220
00002b 2b2a
00002c 5b2c
00002d 5d3d      	.DB  0x20,0x22,0x2A,0x2B,0x2C,0x5B,0x3D,0x5D
00002e 7f7c
E:\AUT\6th semester\Micro Lab\project\SD Pure\SD Pure\Debug\List\sd.asm(1126): warning: .cseg .db misalignment - padding zero byte
00002f 0000      	.DB  0x7C,0x7F,0x0
                 _vst_G102:
000030 0400
000031 0200
000032 0100
000033 0080      	.DB  0x0,0x4,0x0,0x2,0x0,0x1,0x80,0x0
000034 0040
000035 0020
000036 0010
000037 0008      	.DB  0x40,0x0,0x20,0x0,0x10,0x0,0x8,0x0
000038 0004
000039 0002
00003a 0000      	.DB  0x4,0x0,0x2,0x0,0x0,0x0
                 _cst_G102:
00003b 8000
00003c 4000
00003d 2000
00003e 1000      	.DB  0x0,0x80,0x0,0x40,0x0,0x20,0x0,0x10
00003f 0800
000040 4000
000041 2000
000042 1000      	.DB  0x0,0x8,0x0,0x40,0x0,0x20,0x0,0x10
000043 0800
000044 0400
000045 0200      	.DB  0x0,0x8,0x0,0x4,0x0,0x2
                 
                 _0x3:
000046 3a30
000047 662f
000048 6c69
000049 3465      	.DB  0x30,0x3A,0x2F,0x66,0x69,0x6C,0x65,0x34
00004a 742e
00004b 7478      	.DB  0x2E,0x74,0x78,0x74
                 _0x4:
00004c 6f73
00004d 656d
00004e 7420
00004f 7865      	.DB  0x73,0x6F,0x6D,0x65,0x20,0x74,0x65,0x78
E:\AUT\6th semester\Micro Lab\project\SD Pure\SD Pure\Debug\List\sd.asm(1141): warning: .cseg .db misalignment - padding zero byte
000050 0074      	.DB  0x74
                 _0x5:
000051 6548
000052 6572
000053 7327
000054 7320      	.DB  0x48,0x65,0x72,0x65,0x27,0x73,0x20,0x73
000055 6d6f
000056 2065
000057 6f6d
000058 6572      	.DB  0x6F,0x6D,0x65,0x20,0x6D,0x6F,0x72,0x65
000059 7420
00005a 7865
00005b 2e74
00005c 2e2e      	.DB  0x20,0x74,0x65,0x78,0x74,0x2E,0x2E,0x2E
                 _0x0:
00005d 4520
00005e 746e
00005f 7265
000060 7300      	.DB  0x20,0x45,0x6E,0x74,0x65,0x72,0x0,0x73
000061 6565
000062 206b
000063 203a
000064 5200      	.DB  0x65,0x65,0x6B,0x20,0x3A,0x20,0x0,0x52
000065 6165
000066 0064
000067 7257
000068 7469      	.DB  0x65,0x61,0x64,0x0,0x57,0x72,0x69,0x74
000069 0065      	.DB  0x65,0x0
                 _0x2000003:
00006a c080      	.DB  0x80,0xC0
                 _0x2020003:
E:\AUT\6th semester\Micro Lab\project\SD Pure\SD Pure\Debug\List\sd.asm(1154): warning: .cseg .db misalignment - padding zero byte
00006b 0001      	.DB  0x1
                 _0x2040000:
00006c feeb
00006d 4d90
00006e 4453
00006f 534f      	.DB  0xEB,0xFE,0x90,0x4D,0x53,0x44,0x4F,0x53
000070 2e35
000071 0030
000072 4f4e
000073 4e20      	.DB  0x35,0x2E,0x30,0x0,0x4E,0x4F,0x20,0x4E
000074 4d41
000075 2045
000076 2020
000077 4620      	.DB  0x41,0x4D,0x45,0x20,0x20,0x20,0x20,0x46
000078 5441
000079 3233
00007a 2020
00007b 0020      	.DB  0x41,0x54,0x33,0x32,0x20,0x20,0x20,0x0
00007c 4f4e
00007d 4e20
00007e 4d41
00007f 2045      	.DB  0x4E,0x4F,0x20,0x4E,0x41,0x4D,0x45,0x20
000080 2020
000081 4620
000082 5441
000083 2020      	.DB  0x20,0x20,0x20,0x46,0x41,0x54,0x20,0x20
000084 2020
000085 0020      	.DB  0x20,0x20,0x20,0x0
                 _0x2060060:
E:\AUT\6th semester\Micro Lab\project\SD Pure\SD Pure\Debug\List\sd.asm(1164): warning: .cseg .db misalignment - padding zero byte
000086 0001      	.DB  0x1
                 _0x2060000:
000087 4e2d
000088 4e41
000089 4900
00008a 464e      	.DB  0x2D,0x4E,0x41,0x4E,0x0,0x49,0x4E,0x46
E:\AUT\6th semester\Micro Lab\project\SD Pure\SD Pure\Debug\List\sd.asm(1167): warning: .cseg .db misalignment - padding zero byte
00008b 0000      	.DB  0x0
                 
                 __GLOBAL_INI_TBL:
00008c 000c      	.DW  0x0C
00008d 06d0      	.DW  _path
00008e 008c      	.DW  _0x3*2
                 
00008f 0009      	.DW  0x09
000090 06dd      	.DW  _text1
000091 0098      	.DW  _0x4*2
                 
000092 0018      	.DW  0x18
000093 0711      	.DW  _text2
000094 00a2      	.DW  _0x5*2
                 
000095 0007      	.DW  0x07
000096 0260      	.DW  _0x15
000097 00ba      	.DW  _0x0*2
                 
000098 0008      	.DW  0x08
000099 0267      	.DW  _0x15+7
00009a 00c1      	.DW  _0x0*2+7
                 
00009b 0005      	.DW  0x05
00009c 026f      	.DW  _0x15+15
00009d 00c9      	.DW  _0x0*2+15
                 
00009e 0006      	.DW  0x06
00009f 0274      	.DW  _0x15+20
0000a0 00ce      	.DW  _0x0*2+20
                 
0000a1 0002      	.DW  0x02
0000a2 072a      	.DW  __base_y_G100
0000a3 00d4      	.DW  _0x2000003*2
                 
0000a4 0001      	.DW  0x01
0000a5 072e      	.DW  _status_G101
0000a6 00d6      	.DW  _0x2020003*2
                 
0000a7 0001      	.DW  0x01
0000a8 0737      	.DW  __seed_G103
0000a9 010c      	.DW  _0x2060060*2
                 
                 _0xFFFFFFFF:
0000aa 0000      	.DW  0
                 
                 #define __GLOBAL_INI_TBL_PRESENT 1
                 
                 __RESET:
0000ab 94f8      	CLI
0000ac 27ee      	CLR  R30
0000ad bbec      	OUT  EECR,R30
                 
                 ;INTERRUPT VECTORS ARE PLACED
                 ;AT THE START OF FLASH
0000ae e0f1      	LDI  R31,1
0000af bff5      	OUT  MCUCR,R31
0000b0 bfe5      	OUT  MCUCR,R30
                 
                 ;CLEAR R2-R14
0000b1 e08d      	LDI  R24,(14-2)+1
0000b2 e0a2      	LDI  R26,2
0000b3 27bb      	CLR  R27
                 __CLEAR_REG:
0000b4 93ed      	ST   X+,R30
0000b5 958a      	DEC  R24
0000b6 f7e9      	BRNE __CLEAR_REG
                 
                 ;CLEAR SRAM
0000b7 e080      	LDI  R24,LOW(__CLEAR_SRAM_SIZE)
0000b8 e098      	LDI  R25,HIGH(__CLEAR_SRAM_SIZE)
0000b9 e6a0      	LDI  R26,__SRAM_START
                 __CLEAR_SRAM:
0000ba 93ed      	ST   X+,R30
0000bb 9701      	SBIW R24,1
0000bc f7e9      	BRNE __CLEAR_SRAM
                 
                 ;GLOBAL VARIABLES INITIALIZATION
0000bd e1e8      	LDI  R30,LOW(__GLOBAL_INI_TBL*2)
0000be e0f1      	LDI  R31,HIGH(__GLOBAL_INI_TBL*2)
                 __GLOBAL_INI_NEXT:
0000bf 9185      	LPM  R24,Z+
0000c0 9195      	LPM  R25,Z+
0000c1 9700      	SBIW R24,0
0000c2 f061      	BREQ __GLOBAL_INI_END
0000c3 91a5      	LPM  R26,Z+
0000c4 91b5      	LPM  R27,Z+
0000c5 9005      	LPM  R0,Z+
0000c6 9015      	LPM  R1,Z+
0000c7 01bf      	MOVW R22,R30
0000c8 01f0      	MOVW R30,R0
                 __GLOBAL_INI_LOOP:
0000c9 9005      	LPM  R0,Z+
0000ca 920d      	ST   X+,R0
0000cb 9701      	SBIW R24,1
0000cc f7e1      	BRNE __GLOBAL_INI_LOOP
0000cd 01fb      	MOVW R30,R22
0000ce cff0      	RJMP __GLOBAL_INI_NEXT
                 __GLOBAL_INI_END:
                 
                 ;HARDWARE STACK POINTER INITIALIZATION
0000cf e5ef      	LDI  R30,LOW(__SRAM_END-__HEAP_SIZE)
0000d0 bfed      	OUT  SPL,R30
0000d1 e0e8      	LDI  R30,HIGH(__SRAM_END-__HEAP_SIZE)
0000d2 bfee      	OUT  SPH,R30
                 
                 ;DATA STACK POINTER INITIALIZATION
0000d3 e6c0      	LDI  R28,LOW(__SRAM_START+__DSTACK_SIZE)
0000d4 e0d2      	LDI  R29,HIGH(__SRAM_START+__DSTACK_SIZE)
                 
0000d5 940c 00f6 	JMP  _main
                 
                 	.ESEG
                 	.ORG 0
                 
                 	.DSEG
                 	.ORG 0x260
                 
                 	.CSEG
                 ;/*******************************************************
                 ;This program was created by the
                 ;CodeWizardAVR V3.12 Advanced
                 ;Automatic Program Generator
                 ;© Copyright 1998-2014 Pavel Haiduc, HP InfoTech s.r.l.
                 ;http://www.hpinfotech.com
                 ;
                 ;Project :
                 ;Version :
                 ;Date    : 6/12/2017
                 ;Author  :
                 ;Company :
                 ;Comments:
                 ;
                 ;
                 ;Chip type               : ATmega32A
                 ;Program type            : Application
                 ;AVR Core Clock frequency: 8.000000 MHz
                 ;Memory model            : Small
                 ;External RAM size       : 0
                 ;Data Stack size         : 512
                 ;*******************************************************/
                 ;
                 ;#include <mega32a.h>
                 	#ifndef __SLEEP_DEFINED__
                 	#define __SLEEP_DEFINED__
                 	.EQU __se_bit=0x80
                 	.EQU __sm_mask=0x70
                 	.EQU __sm_powerdown=0x20
                 	.EQU __sm_powersave=0x30
                 	.EQU __sm_standby=0x60
                 	.EQU __sm_ext_standby=0x70
                 	.EQU __sm_adc_noise_red=0x10
                 	.SET power_ctrl_reg=mcucr
                 	#endif
                 ;#include <alcd.h>
                 ;#include <ff.h>
                 ;#include <delay.h>
                 ;#include <stdlib.h>
                 ;
                 ;#define ENTER 1000
                 ;#define WRITE 1100
                 ;#define READ 1200
                 ;
                 ;void error(int res);
                 ;void write_to_file();
                 ;void seek_in_file(unsigned long addr);
                 ;void read_from_file();
                 ;void error(int res);
                 ;void readNumber();
                 ;int readKey();
                 ;
                 ;interrupt [TIM0_OVF] void timer0_ovf_isr(void){
                 ; 0000 002A interrupt [12] void timer0_ovf_isr(void){
                 
                 	.CSEG
                 _timer0_ovf_isr:
                 ; .FSTART _timer0_ovf_isr
0000d7 920a      	ST   -Y,R0
0000d8 921a      	ST   -Y,R1
0000d9 92fa      	ST   -Y,R15
0000da 936a      	ST   -Y,R22
0000db 937a      	ST   -Y,R23
0000dc 938a      	ST   -Y,R24
0000dd 939a      	ST   -Y,R25
0000de 93aa      	ST   -Y,R26
0000df 93ba      	ST   -Y,R27
0000e0 93ea      	ST   -Y,R30
0000e1 93fa      	ST   -Y,R31
0000e2 b7ef      	IN   R30,SREG
0000e3 93ea      	ST   -Y,R30
                 ; 0000 002B 	TCNT0=0xB2;
0000e4 ebe2      	LDI  R30,LOW(178)
0000e5 bfe2      	OUT  0x32,R30
                 ; 0000 002C 	disk_timerproc();
0000e6 940e 07e2 	CALL _disk_timerproc
                 ; 0000 002D }
0000e8 91e9      	LD   R30,Y+
0000e9 bfef      	OUT  SREG,R30
0000ea 91f9      	LD   R31,Y+
0000eb 91e9      	LD   R30,Y+
0000ec 91b9      	LD   R27,Y+
0000ed 91a9      	LD   R26,Y+
0000ee 9199      	LD   R25,Y+
0000ef 9189      	LD   R24,Y+
0000f0 9179      	LD   R23,Y+
0000f1 9169      	LD   R22,Y+
0000f2 90f9      	LD   R15,Y+
0000f3 9019      	LD   R1,Y+
0000f4 9009      	LD   R0,Y+
0000f5 9518      	RETI
                 ; .FEND
                 ;
                 ;FRESULT res;
                 ;unsigned int nbytes;
                 ;FATFS fat;
                 ;FIL file;
                 ;FILINFO finfo;
                 ;DRESULT dres;
                 ;char path[]="0:/file4.txt";
                 
                 	.DSEG
                 ;char text1[52]="some text";
                 ;char text2[]="Here's some more text...";
                 ;char buffer[256];
                 ;
                 ;
                 ;void main(void){
                 ; 0000 003B void main(void){
                 
                 	.CSEG
                 _main:
                 ; .FSTART _main
                 ; 0000 003C 	int result = 0, n = 0, state = 0, cnt = 0;
                 ; 0000 003D 	char numStr[6];
                 ; 0000 003E 	DSTATUS disk_status;
                 ; 0000 003F 	unsigned int sector_size;
                 ; 0000 0040 	unsigned long int sector_count;
                 ; 0000 0041 
                 ; 0000 0042 	DDRA=(0<<DDA7) | (0<<DDA6) | (0<<DDA5) | (0<<DDA4) | (0<<DDA3) | (0<<DDA2) | (0<<DDA1) | (0<<DDA0);
0000f6 972f      	SBIW R28,15
0000f7 e0e0      	LDI  R30,LOW(0)
0000f8 87ed      	STD  Y+13,R30
0000f9 87ee      	STD  Y+14,R30
                 ;	result -> R16,R17
                 ;	n -> R18,R19
                 ;	state -> R20,R21
                 ;	cnt -> Y+13
                 ;	numStr -> Y+7
                 ;	disk_status -> Y+6
                 ;	sector_size -> Y+4
                 ;	sector_count -> Y+0
                +
0000fa e000     +LDI R16 , LOW ( 0 )
0000fb e010     +LDI R17 , HIGH ( 0 )
                 	__GETWRN 16,17,0
                +
0000fc e020     +LDI R18 , LOW ( 0 )
0000fd e030     +LDI R19 , HIGH ( 0 )
                 	__GETWRN 18,19,0
                +
0000fe e040     +LDI R20 , LOW ( 0 )
0000ff e050     +LDI R21 , HIGH ( 0 )
                 	__GETWRN 20,21,0
000100 bbea      	OUT  0x1A,R30
                 ; 0000 0043 	PORTA=(0<<PORTA7) | (0<<PORTA6) | (0<<PORTA5) | (0<<PORTA4) | (0<<PORTA3) | (0<<PORTA2) | (0<<PORTA1) | (0<<PORTA0);
000101 bbeb      	OUT  0x1B,R30
                 ; 0000 0044 
                 ; 0000 0045 	DDRB=(0<<DDB7) | (0<<DDB6) | (1<<DDB5) | (0<<DDB4) | (0<<DDB3) | (0<<DDB2) | (0<<DDB1) | (0<<DDB0);
000102 e2e0      	LDI  R30,LOW(32)
000103 bbe7      	OUT  0x17,R30
                 ; 0000 0046 	PORTB=(0<<PORTB7) | (0<<PORTB6) | (0<<PORTB5) | (0<<PORTB4) | (0<<PORTB3) | (0<<PORTB2) | (0<<PORTB1) | (0<<PORTB0);
000104 e0e0      	LDI  R30,LOW(0)
000105 bbe8      	OUT  0x18,R30
                 ; 0000 0047 
                 ; 0000 0048 	DDRC=(0<<DDC7) | (0<<DDC6) | (0<<DDC5) | (0<<DDC4) | (0<<DDC3) | (0<<DDC2) | (0<<DDC1) | (0<<DDC0);
000106 bbe4      	OUT  0x14,R30
                 ; 0000 0049 	PORTC=(0<<PORTC7) | (0<<PORTC6) | (0<<PORTC5) | (0<<PORTC4) | (0<<PORTC3) | (0<<PORTC2) | (0<<PORTC1) | (0<<PORTC0);
000107 bbe5      	OUT  0x15,R30
                 ; 0000 004A 
                 ; 0000 004B 	DDRD=(0<<DDD7) | (0<<DDD6) | (0<<DDD5) | (0<<DDD4) | (0<<DDD3) | (0<<DDD2) | (0<<DDD1) | (0<<DDD0);
000108 bbe1      	OUT  0x11,R30
                 ; 0000 004C 	PORTD=(0<<PORTD7) | (0<<PORTD6) | (0<<PORTD5) | (0<<PORTD4) | (0<<PORTD3) | (0<<PORTD2) | (0<<PORTD1) | (0<<PORTD0);
000109 bbe2      	OUT  0x12,R30
                 ; 0000 004D 
                 ; 0000 004E 	// Timer/Counter 0 initialization
                 ; 0000 004F 	// Clock source: System Clock
                 ; 0000 0050 	// Clock value: 7.813 kHz
                 ; 0000 0051 	// Mode: Normal top=0xFF
                 ; 0000 0052 	// OC0 output: Disconnected
                 ; 0000 0053 	// Timer Period: 9.984 ms
                 ; 0000 0054 	TCCR0=(0<<WGM00) | (0<<COM01) | (0<<COM00) | (0<<WGM01) | (1<<CS02) | (0<<CS01) | (1<<CS00);
00010a e0e5      	LDI  R30,LOW(5)
00010b bfe3      	OUT  0x33,R30
                 ; 0000 0055 	TCNT0=0xB2;
00010c ebe2      	LDI  R30,LOW(178)
00010d bfe2      	OUT  0x32,R30
                 ; 0000 0056 	OCR0=0x00;
00010e e0e0      	LDI  R30,LOW(0)
00010f bfec      	OUT  0x3C,R30
                 ; 0000 0057 
                 ; 0000 0058 	// Timer/Counter 1 initialization
                 ; 0000 0059 	// Clock source: System Clock
                 ; 0000 005A 	// Clock value: Timer1 Stopped
                 ; 0000 005B 	// Mode: Normal top=0xFFFF
                 ; 0000 005C 	// OC1A output: Disconnected
                 ; 0000 005D 	// OC1B output: Disconnected
                 ; 0000 005E 	// Noise Canceler: Off
                 ; 0000 005F 	// Input Capture on Falling Edge
                 ; 0000 0060 	// Timer1 Overflow Interrupt: Off
                 ; 0000 0061 	// Input Capture Interrupt: Off
                 ; 0000 0062 	// Compare A Match Interrupt: Off
                 ; 0000 0063 	// Compare B Match Interrupt: Off
                 ; 0000 0064 	TCCR1A=(0<<COM1A1) | (0<<COM1A0) | (0<<COM1B1) | (0<<COM1B0) | (0<<WGM11) | (0<<WGM10);
000110 bdef      	OUT  0x2F,R30
                 ; 0000 0065 	TCCR1B=(0<<ICNC1) | (0<<ICES1) | (0<<WGM13) | (0<<WGM12) | (0<<CS12) | (0<<CS11) | (0<<CS10);
000111 bdee      	OUT  0x2E,R30
                 ; 0000 0066 	TCNT1H=0x00;
000112 bded      	OUT  0x2D,R30
                 ; 0000 0067 	TCNT1L=0x00;
000113 bdec      	OUT  0x2C,R30
                 ; 0000 0068 	ICR1H=0x00;
000114 bde7      	OUT  0x27,R30
                 ; 0000 0069 	ICR1L=0x00;
000115 bde6      	OUT  0x26,R30
                 ; 0000 006A 	OCR1AH=0x00;
000116 bdeb      	OUT  0x2B,R30
                 ; 0000 006B 	OCR1AL=0x00;
000117 bdea      	OUT  0x2A,R30
                 ; 0000 006C 	OCR1BH=0x00;
000118 bde9      	OUT  0x29,R30
                 ; 0000 006D 	OCR1BL=0x00;
000119 bde8      	OUT  0x28,R30
                 ; 0000 006E 
                 ; 0000 006F 	// Timer/Counter 2 initialization
                 ; 0000 0070 	// Clock source: System Clock
                 ; 0000 0071 	// Clock value: Timer2 Stopped
                 ; 0000 0072 	// Mode: Normal top=0xFF
                 ; 0000 0073 	// OC2 output: Disconnected
                 ; 0000 0074 	ASSR=0<<AS2;
00011a bde2      	OUT  0x22,R30
                 ; 0000 0075 	TCCR2=(0<<PWM2) | (0<<COM21) | (0<<COM20) | (0<<CTC2) | (0<<CS22) | (0<<CS21) | (0<<CS20);
00011b bde5      	OUT  0x25,R30
                 ; 0000 0076 	TCNT2=0x00;
00011c bde4      	OUT  0x24,R30
                 ; 0000 0077 	OCR2=0x00;
00011d bde3      	OUT  0x23,R30
                 ; 0000 0078 
                 ; 0000 0079 	// Timer(s)/Counter(s) Interrupt(s) initialization
                 ; 0000 007A 	TIMSK=(0<<OCIE2) | (0<<TOIE2) | (0<<TICIE1) | (0<<OCIE1A) | (0<<OCIE1B) | (0<<TOIE1) | (0<<OCIE0) | (1<<TOIE0);
00011e e0e1      	LDI  R30,LOW(1)
00011f bfe9      	OUT  0x39,R30
                 ; 0000 007B 
                 ; 0000 007C 	// External Interrupt(s) initialization
                 ; 0000 007D 	// INT0: Off
                 ; 0000 007E 	// INT1: Off
                 ; 0000 007F 	// INT2: Off
                 ; 0000 0080 	MCUCR=(0<<ISC11) | (0<<ISC10) | (0<<ISC01) | (0<<ISC00);
000120 e0e0      	LDI  R30,LOW(0)
000121 bfe5      	OUT  0x35,R30
                 ; 0000 0081 	MCUCSR=(0<<ISC2);
000122 bfe4      	OUT  0x34,R30
                 ; 0000 0082 
                 ; 0000 0083 	// USART initialization
                 ; 0000 0084 	// USART disabled
                 ; 0000 0085 	UCSRB=(0<<RXCIE) | (0<<TXCIE) | (0<<UDRIE) | (0<<RXEN) | (0<<TXEN) | (0<<UCSZ2) | (0<<RXB8) | (0<<TXB8);
000123 b9ea      	OUT  0xA,R30
                 ; 0000 0086 
                 ; 0000 0087 	// Analog Comparator initialization
                 ; 0000 0088 	// Analog Comparator: Off
                 ; 0000 0089 	// The Analog Comparator's positive input is
                 ; 0000 008A 	// connected to the AIN0 pin
                 ; 0000 008B 	// The Analog Comparator's negative input is
                 ; 0000 008C 	// connected to the AIN1 pin
                 ; 0000 008D 	ACSR=(1<<ACD) | (0<<ACBG) | (0<<ACO) | (0<<ACI) | (0<<ACIE) | (0<<ACIC) | (0<<ACIS1) | (0<<ACIS0);
000124 e8e0      	LDI  R30,LOW(128)
000125 b9e8      	OUT  0x8,R30
                 ; 0000 008E 	SFIOR=(0<<ACME);
000126 e0e0      	LDI  R30,LOW(0)
000127 bfe0      	OUT  0x30,R30
                 ; 0000 008F 
                 ; 0000 0090 	// ADC initialization
                 ; 0000 0091 	// ADC disabled
                 ; 0000 0092 	ADCSRA=(0<<ADEN) | (0<<ADSC) | (0<<ADATE) | (0<<ADIF) | (0<<ADIE) | (0<<ADPS2) | (0<<ADPS1) | (0<<ADPS0);
000128 b9e6      	OUT  0x6,R30
                 ; 0000 0093 
                 ; 0000 0094 	// SPI initialization
                 ; 0000 0095 	// SPI disabled
                 ; 0000 0096 	SPCR=(0<<SPIE) | (0<<SPE) | (0<<DORD) | (0<<MSTR) | (0<<CPOL) | (0<<CPHA) | (0<<SPR1) | (0<<SPR0);
000129 b9ed      	OUT  0xD,R30
                 ; 0000 0097 
                 ; 0000 0098 	// TWI initialization
                 ; 0000 0099 	// TWI disabled
                 ; 0000 009A 	TWCR=(0<<TWEA) | (0<<TWSTA) | (0<<TWSTO) | (0<<TWEN) | (0<<TWIE);
00012a bfe6      	OUT  0x36,R30
                 ; 0000 009B 
                 ; 0000 009C 	// Alphanumeric LCD initialization
                 ; 0000 009D 	lcd_init(16);
00012b e1a0      	LDI  R26,LOW(16)
00012c 940e 0333 	CALL _lcd_init
                 ; 0000 009E 
                 ; 0000 009F 	// Global enable interrupts
                 ; 0000 00A0 	#asm("sei")
00012e 9478      	sei
                 ; 0000 00A1 	if ((res=f_mount(0,&fat))!=FR_OK){
00012f e0e0      	LDI  R30,LOW(0)
000130 93ea      	ST   -Y,R30
000131 e7ae      	LDI  R26,LOW(_fat)
000132 e0b2      	LDI  R27,HIGH(_fat)
000133 940e 113a 	CALL _f_mount
000135 2e5e      	MOV  R5,R30
000136 30e0      	CPI  R30,0
000137 f019      	BREQ _0x6
                 ; 0000 00A2 		error(1);
000138 e0a1      	LDI  R26,LOW(1)
000139 e0b0      	LDI  R27,0
00013a d0d6      	RCALL _error
                 ; 0000 00A3 	}
                 ; 0000 00A4 
                 ; 0000 00A5 	if ((res=f_open(&file,path,FA_OPEN_EXISTING | FA_WRITE | FA_READ))!=FR_OK){
                 _0x6:
00013b 940e 1835 	CALL SUBOPT_0x0
00013d e0a3      	LDI  R26,LOW(3)
00013e 940e 1167 	CALL _f_open
000140 2e5e      	MOV  R5,R30
000141 30e0      	CPI  R30,0
000142 f051      	BREQ _0x7
                 ; 0000 00A6 		if ((res=f_open(&file,path,FA_CREATE_NEW | FA_WRITE | FA_READ))!=FR_OK){
000143 940e 1835 	CALL SUBOPT_0x0
000145 e0a7      	LDI  R26,LOW(7)
000146 940e 1167 	CALL _f_open
000148 2e5e      	MOV  R5,R30
000149 30e0      	CPI  R30,0
00014a f011      	BREQ _0x8
                 ; 0000 00A7 			error(res);
00014b 940e 183e 	CALL SUBOPT_0x1
                 ; 0000 00A8 		}
                 ; 0000 00A9 	}
                 _0x8:
                 ; 0000 00AA 
                 ; 0000 00AB 	   //writing at specified addr in file
                 ; 0000 00AC 	   seek_in_file(10);
                 _0x7:
                +
00014d e0aa     +LDI R26 , LOW ( 0xA )
00014e e0b0     +LDI R27 , HIGH ( 0xA )
00014f e080     +LDI R24 , BYTE3 ( 0xA )
000150 e090     +LDI R25 , BYTE4 ( 0xA )
                 	__GETD2N 0xA
000151 d0e6      	RCALL _seek_in_file
                 ; 0000 00AD 	   text1[0]=20;
000152 e1e4      	LDI  R30,LOW(20)
000153 940e 1842 	CALL SUBOPT_0x2
                 ; 0000 00AE 	   write_to_file();
                 ; 0000 00AF 
                 ; 0000 00B0 	   seek_in_file(20);
                +
000155 e1a4     +LDI R26 , LOW ( 0x14 )
000156 e0b0     +LDI R27 , HIGH ( 0x14 )
000157 e080     +LDI R24 , BYTE3 ( 0x14 )
000158 e090     +LDI R25 , BYTE4 ( 0x14 )
                 	__GETD2N 0x14
000159 d0de      	RCALL _seek_in_file
                 ; 0000 00B1 	   text1[0]=40;
00015a e2e8      	LDI  R30,LOW(40)
00015b 940e 1842 	CALL SUBOPT_0x2
                 ; 0000 00B2 	   write_to_file();
                 ; 0000 00B3 
                 ; 0000 00B4 	   seek_in_file(22);
                +
00015d e1a6     +LDI R26 , LOW ( 0x16 )
00015e e0b0     +LDI R27 , HIGH ( 0x16 )
00015f e080     +LDI R24 , BYTE3 ( 0x16 )
000160 e090     +LDI R25 , BYTE4 ( 0x16 )
                 	__GETD2N 0x16
000161 d0d6      	RCALL _seek_in_file
                 ; 0000 00B5 	   text1[0]=43;
000162 e2eb      	LDI  R30,LOW(43)
000163 940e 1842 	CALL SUBOPT_0x2
                 ; 0000 00B6 	   write_to_file();
                 ; 0000 00B7 
                 ; 0000 00B8 
                 ; 0000 00B9 
                 ; 0000 00BA 
                 ; 0000 00BB 
                 ; 0000 00BC 
                 ; 0000 00BD 	while (1){
                 _0x9:
                 ; 0000 00BE 		int key;
                 ; 0000 00BF 		key= readKey();
000165 9722      	SBIW R28,2
                 ;	cnt -> Y+15
                 ;	numStr -> Y+9
                 ;	disk_status -> Y+8
                 ;	sector_size -> Y+6
                 ;	sector_count -> Y+2
                 ;	key -> Y+0
000166 d0e1      	RCALL _readKey
000167 83e8      	ST   Y,R30
000168 83f9      	STD  Y+1,R31
                 ; 0000 00C0 		if(key != -1 && key < 1000 && (state > 1 || cnt == 1)){
000169 81a8      	LD   R26,Y
00016a 81b9      	LDD  R27,Y+1
00016b 3faf      	CPI  R26,LOW(0xFFFF)
00016c efef      	LDI  R30,HIGH(0xFFFF)
00016d 07be      	CPC  R27,R30
00016e f069      	BREQ _0xD
00016f 3ea8      	CPI  R26,LOW(0x3E8)
000170 e0e3      	LDI  R30,HIGH(0x3E8)
000171 07be      	CPC  R27,R30
000172 f44c      	BRGE _0xD
                +
000173 3042     +CPI R20 , LOW ( 2 )
000174 e0e0     +LDI R30 , HIGH ( 2 )
000175 075e     +CPC R21 , R30
                 	__CPWRN 20,21,2
000176 f424      	BRGE _0xE
000177 85af      	LDD  R26,Y+15
000178 89b8      	LDD  R27,Y+15+1
000179 9711      	SBIW R26,1
00017a f409      	BRNE _0xD
                 _0xE:
00017b c001      	RJMP _0x10
                 _0xD:
00017c c019      	RJMP _0xC
                 _0x10:
                 ; 0000 00C1 			delay_ms(100);
00017d e6a4      	LDI  R26,LOW(100)
00017e e0b0      	LDI  R27,0
00017f 940e 1c7d 	CALL _delay_ms
                 ; 0000 00C2 			result*=10;
000181 01f8      	MOVW R30,R16
000182 e0aa      	LDI  R26,LOW(10)
000183 e0b0      	LDI  R27,HIGH(10)
000184 940e 1d1f 	CALL __MULW12
000186 018f      	MOVW R16,R30
                 ; 0000 00C3 			result+=key;
000187 81e8      	LD   R30,Y
000188 81f9      	LDD  R31,Y+1
                +
000189 0f0e     +ADD R16 , R30
00018a 1f1f     +ADC R17 , R31
                 	__ADDWRR 16,17,30,31
                 ; 0000 00C4 			n++;
                +
00018b 5f2f     +SUBI R18 , LOW ( - 1 )
00018c 4f3f     +SBCI R19 , HIGH ( - 1 )
                 	__ADDWRN 18,19,1
                 ; 0000 00C5 			itoa(key, numStr );
00018d 940e 1846 	CALL SUBOPT_0x3
                 ; 0000 00C6 			lcd_puts(numStr);
                 ; 0000 00C7 			delay_ms(150);
00018f e9a6      	LDI  R26,LOW(150)
000190 e0b0      	LDI  R27,0
000191 940e 1c7d 	CALL _delay_ms
                 ; 0000 00C8 			state = 100;
                +
000193 e644     +LDI R20 , LOW ( 100 )
000194 e050     +LDI R21 , HIGH ( 100 )
                 	__GETWRN 20,21,100
                 ; 0000 00C9 		}
                 ; 0000 00CA 
                 ; 0000 00CB 		else if(state == 100 && key == ENTER){
000195 c078      	RJMP _0x11
                 _0xC:
000196 e6e4      	LDI  R30,LOW(100)
000197 e0f0      	LDI  R31,HIGH(100)
000198 17e4      	CP   R30,R20
000199 07f5      	CPC  R31,R21
00019a f431      	BRNE _0x13
00019b 81a8      	LD   R26,Y
00019c 81b9      	LDD  R27,Y+1
00019d 3ea8      	CPI  R26,LOW(0x3E8)
00019e e0e3      	LDI  R30,HIGH(0x3E8)
00019f 07be      	CPC  R27,R30
0001a0 f009      	BREQ _0x14
                 _0x13:
0001a1 c03c      	RJMP _0x12
                 _0x14:
                 ; 0000 00CC 			lcd_puts(" Enter");
                +
0001a2 e6a0     +LDI R26 , LOW ( _0x15 + ( 0 ) )
0001a3 e0b2     +LDI R27 , HIGH ( _0x15 + ( 0 ) )
                 	__POINTW2MN _0x15,0
0001a4 940e 1850 	CALL SUBOPT_0x4
                 ; 0000 00CD 			delay_ms(400);
                 ; 0000 00CE 			lcd_clear();
                 ; 0000 00CF 			state = 1;
                +
0001a6 e041     +LDI R20 , LOW ( 1 )
0001a7 e050     +LDI R21 , HIGH ( 1 )
                 	__GETWRN 20,21,1
                 ; 0000 00D0 			cnt++;
0001a8 85ef      	LDD  R30,Y+15
0001a9 89f8      	LDD  R31,Y+15+1
0001aa 9631      	ADIW R30,1
0001ab 87ef      	STD  Y+15,R30
0001ac 8bf8      	STD  Y+15+1,R31
                 ; 0000 00D1 
                 ; 0000 00D2 			if(cnt == 1 ){
0001ad 85af      	LDD  R26,Y+15
0001ae 89b8      	LDD  R27,Y+15+1
0001af 9711      	SBIW R26,1
0001b0 f411      	BRNE _0x16
                 ; 0000 00D3 				seek_in_file((unsigned long)result);
0001b1 940e 1858 	CALL SUBOPT_0x5
                 ; 0000 00D4 				result = 0;
                 ; 0000 00D5 			}
                 ; 0000 00D6 
                 ; 0000 00D7 			if(cnt == 2){
                 _0x16:
0001b3 85af      	LDD  R26,Y+15
0001b4 89b8      	LDD  R27,Y+15+1
0001b5 9712      	SBIW R26,2
0001b6 f429      	BRNE _0x17
                 ; 0000 00D8 				text1[0] = result;
0001b7 9300 06dd 	STS  _text1,R16
                 ; 0000 00D9 				 write_to_file();
0001b9 d06c      	RCALL _write_to_file
                 ; 0000 00DA 				 result = 0;
                +
0001ba e000     +LDI R16 , LOW ( 0 )
0001bb e010     +LDI R17 , HIGH ( 0 )
                 	__GETWRN 16,17,0
                 ; 0000 00DB 			}
                 ; 0000 00DC 
                 ; 0000 00DD 			if(cnt == 0){
                 _0x17:
0001bc 85ef      	LDD  R30,Y+15
0001bd 89f8      	LDD  R31,Y+15+1
0001be 9730      	SBIW R30,0
0001bf f4e9      	BRNE _0x18
                 ; 0000 00DE 				itoa(result  , numStr);
0001c0 931a      	ST   -Y,R17
0001c1 930a      	ST   -Y,R16
0001c2 01de      	MOVW R26,R28
0001c3 961b      	ADIW R26,11
0001c4 940e 17cc 	CALL _itoa
                 ; 0000 00DF 				lcd_puts("seek : ");
                +
0001c6 e6a7     +LDI R26 , LOW ( _0x15 + ( 7 ) )
0001c7 e0b2     +LDI R27 , HIGH ( _0x15 + ( 7 ) )
                 	__POINTW2MN _0x15,7
0001c8 d159      	RCALL _lcd_puts
                 ; 0000 00E0 				lcd_puts(numStr);
0001c9 01de      	MOVW R26,R28
0001ca 9619      	ADIW R26,9
0001cb d156      	RCALL _lcd_puts
                 ; 0000 00E1 				delay_ms(200);
0001cc eca8      	LDI  R26,LOW(200)
0001cd e0b0      	LDI  R27,0
0001ce 940e 1c7d 	CALL _delay_ms
                 ; 0000 00E2 				lcd_clear();
0001d0 d130      	RCALL _lcd_clear
                 ; 0000 00E3 				seek_in_file((unsigned long)result);
0001d1 940e 1858 	CALL SUBOPT_0x5
                 ; 0000 00E4 				result = 0;
                 ; 0000 00E5 				read_from_file();
0001d3 d044      	RCALL _read_from_file
                 ; 0000 00E6 				itoa(text2[0], numStr);
0001d4 91e0 0711 	LDS  R30,_text2
0001d6 e0f0      	LDI  R31,0
0001d7 940e 1846 	CALL SUBOPT_0x3
                 ; 0000 00E7 				lcd_puts(numStr);
                 ; 0000 00E8 				delay_ms(400);
0001d9 e9a0      	LDI  R26,LOW(400)
0001da e0b1      	LDI  R27,HIGH(400)
0001db 940e 1c7d 	CALL _delay_ms
                 ; 0000 00E9 			}
                 ; 0000 00EA 		}
                 _0x18:
                 ; 0000 00EB 		else if(key == READ && cnt == 2){
0001dd c030      	RJMP _0x19
                 _0x12:
0001de 81a8      	LD   R26,Y
0001df 81b9      	LDD  R27,Y+1
0001e0 3ba0      	CPI  R26,LOW(0x4B0)
0001e1 e0e4      	LDI  R30,HIGH(0x4B0)
0001e2 07be      	CPC  R27,R30
0001e3 f421      	BRNE _0x1B
0001e4 85af      	LDD  R26,Y+15
0001e5 89b8      	LDD  R27,Y+15+1
0001e6 9712      	SBIW R26,2
0001e7 f009      	BREQ _0x1C
                 _0x1B:
0001e8 c00b      	RJMP _0x1A
                 _0x1C:
                 ; 0000 00EC 			lcd_puts("Read");
                +
0001e9 e6af     +LDI R26 , LOW ( _0x15 + ( 15 ) )
0001ea e0b2     +LDI R27 , HIGH ( _0x15 + ( 15 ) )
                 	__POINTW2MN _0x15,15
0001eb 940e 1850 	CALL SUBOPT_0x4
                 ; 0000 00ED 			delay_ms(400);
                 ; 0000 00EE 			lcd_clear();
                 ; 0000 00EF 			state = 2;
                +
0001ed e042     +LDI R20 , LOW ( 2 )
0001ee e050     +LDI R21 , HIGH ( 2 )
                 	__GETWRN 20,21,2
                 ; 0000 00F0 			cnt = -1;
0001ef efef      	LDI  R30,LOW(65535)
0001f0 efff      	LDI  R31,HIGH(65535)
0001f1 87ef      	STD  Y+15,R30
0001f2 8bf8      	STD  Y+15+1,R31
                 ; 0000 00F1 		}
                 ; 0000 00F2 		else if(key == WRITE && (state == 0 || state == 1) && cnt != 1){
0001f3 c01a      	RJMP _0x1D
                 _0x1A:
0001f4 81a8      	LD   R26,Y
0001f5 81b9      	LDD  R27,Y+1
0001f6 34ac      	CPI  R26,LOW(0x44C)
0001f7 e0e4      	LDI  R30,HIGH(0x44C)
0001f8 07be      	CPC  R27,R30
0001f9 f469      	BRNE _0x1F
0001fa 2400      	CLR  R0
0001fb 1604      	CP   R0,R20
0001fc 0605      	CPC  R0,R21
0001fd f029      	BREQ _0x20
0001fe e0e1      	LDI  R30,LOW(1)
0001ff e0f0      	LDI  R31,HIGH(1)
000200 17e4      	CP   R30,R20
000201 07f5      	CPC  R31,R21
000202 f421      	BRNE _0x1F
                 _0x20:
000203 85af      	LDD  R26,Y+15
000204 89b8      	LDD  R27,Y+15+1
000205 9711      	SBIW R26,1
000206 f409      	BRNE _0x22
                 _0x1F:
000207 c006      	RJMP _0x1E
                 _0x22:
                 ; 0000 00F3 				lcd_puts("Write");
                +
000208 e7a4     +LDI R26 , LOW ( _0x15 + ( 20 ) )
000209 e0b2     +LDI R27 , HIGH ( _0x15 + ( 20 ) )
                 	__POINTW2MN _0x15,20
00020a 940e 1850 	CALL SUBOPT_0x4
                 ; 0000 00F4 				delay_ms(400);
                 ; 0000 00F5 				lcd_clear();
                 ; 0000 00F6 
                 ; 0000 00F7 				state = 3;
                +
00020c e043     +LDI R20 , LOW ( 3 )
00020d e050     +LDI R21 , HIGH ( 3 )
                 	__GETWRN 20,21,3
                 ; 0000 00F8 		}
                 ; 0000 00F9 	}
                 _0x1E:
                 _0x1D:
                 _0x19:
                 _0x11:
00020e 9622      	ADIW R28,2
00020f cf55      	RJMP _0x9
                 ; 0000 00FA }
                 _0x23:
000210 cfff      	RJMP _0x23
                 ; .FEND
                 
                 	.DSEG
                 _0x15:
000260           	.BYTE 0x1A
                 ;void error (int res){
                 ; 0000 00FB void error (int res){
                 
                 	.CSEG
                 _error:
                 ; .FSTART _error
                 ; 0000 00FC     DDRD=0xFF;
000211 93ba      	ST   -Y,R27
000212 93aa      	ST   -Y,R26
                 ;	res -> Y+0
000213 efef      	LDI  R30,LOW(255)
000214 bbe1      	OUT  0x11,R30
                 ; 0000 00FD     PORTD=res;
000215 81e8      	LD   R30,Y
000216 bbe2      	OUT  0x12,R30
                 ; 0000 00FE     while(1){}
                 _0x24:
000217 cfff      	RJMP _0x24
                 ; 0000 00FF }
                 ; .FEND
                 ;
                 ;
                 ;void read_from_file(){
                 ; 0000 0102 void read_from_file(){
                 _read_from_file:
                 ; .FSTART _read_from_file
                 ; 0000 0103     if ((res=f_read(&file,text2,1,&nbytes))!=FR_OK){
000218 940e 1860 	CALL SUBOPT_0x6
00021a e1e1      	LDI  R30,LOW(_text2)
00021b e0f7      	LDI  R31,HIGH(_text2)
00021c 940e 1865 	CALL SUBOPT_0x7
00021e 940e 1299 	CALL _f_read
000220 2e5e      	MOV  R5,R30
000221 30e0      	CPI  R30,0
000222 f011      	BREQ _0x27
                 ; 0000 0104         error(res);
000223 940e 183e 	CALL SUBOPT_0x1
                 ; 0000 0105     }
                 ; 0000 0106 }
                 _0x27:
000225 9508      	RET
                 ; .FEND
                 ;
                 ;void write_to_file(){
                 ; 0000 0108 void write_to_file(){
                 _write_to_file:
                 ; .FSTART _write_to_file
                 ; 0000 0109 if ((res=f_write(&file,text1,1,&nbytes))!=FR_OK)
000226 940e 1860 	CALL SUBOPT_0x6
000228 eded      	LDI  R30,LOW(_text1)
000229 e0f6      	LDI  R31,HIGH(_text1)
00022a 940e 1865 	CALL SUBOPT_0x7
00022c 940e 13ff 	CALL _f_write
00022e 2e5e      	MOV  R5,R30
00022f 30e0      	CPI  R30,0
000230 f011      	BREQ _0x28
                 ; 0000 010A    error(res);
000231 940e 183e 	CALL SUBOPT_0x1
                 ; 0000 010B f_sync(&file);
                 _0x28:
000233 eba0      	LDI  R26,LOW(_file)
000234 e0b4      	LDI  R27,HIGH(_file)
000235 940e 15a2 	CALL _f_sync
                 ; 0000 010C }
000237 9508      	RET
                 ; .FEND
                 ;
                 ;
                 ;
                 ;void seek_in_file(unsigned long addr){
                 ; 0000 0110 void seek_in_file(unsigned long addr){
                 _seek_in_file:
                 ; .FSTART _seek_in_file
                 ; 0000 0111     unsigned long i;
                 ; 0000 0112     if ((res=f_lseek(&file, addr))!=FR_OK){
000238 940e 1d9c 	CALL __PUTPARD2
00023a 9724      	SBIW R28,4
                 ;	addr -> Y+4
                 ;	i -> Y+0
00023b 940e 1860 	CALL SUBOPT_0x6
00023d 940e 186e 	CALL SUBOPT_0x8
00023f 940e 1626 	CALL _f_lseek
000241 2e5e      	MOV  R5,R30
000242 30e0      	CPI  R30,0
000243 f011      	BREQ _0x29
                 ; 0000 0113         error(res);
000244 940e 183e 	CALL SUBOPT_0x1
                 ; 0000 0114     }
                 ; 0000 0115 }
                 _0x29:
000246 940c 0652 	JMP  _0x20E0019
                 ; .FEND
                 ;
                 ;
                 ;
                 ;int readKey(){
                 ; 0000 0119 int readKey(){
                 _readKey:
                 ; .FSTART _readKey
                 ; 0000 011A 	int col =-1 ;
                 ; 0000 011B 	int row;
                 ; 0000 011C 	DDRC = 0x0F;
000248 940e 1dc4 	CALL __SAVELOCR4
                 ;	col -> R16,R17
                 ;	row -> R18,R19
                +
00024a ef0f     +LDI R16 , LOW ( - 1 )
00024b ef1f     +LDI R17 , HIGH ( - 1 )
                 	__GETWRN 16,17,-1
00024c e0ef      	LDI  R30,LOW(15)
00024d bbe4      	OUT  0x14,R30
                 ; 0000 011D 	PORTC.0 = 0;
00024e 98a8      	CBI  0x15,0
                 ; 0000 011E 	PORTC.1 = 0;
00024f 98a9      	CBI  0x15,1
                 ; 0000 011F 	PORTC.2 = 0;
000250 98aa      	CBI  0x15,2
                 ; 0000 0120 	PORTC.3 = 0;
000251 98ab      	CBI  0x15,3
                 ; 0000 0121 	PORTC.4 = 1;
000252 9aac      	SBI  0x15,4
                 ; 0000 0122 	PORTC.5 = 1;
000253 9aad      	SBI  0x15,5
                 ; 0000 0123 	PORTC.6 = 1;
000254 9aae      	SBI  0x15,6
                 ; 0000 0124 	PORTC.7 = 1;
000255 9aaf      	SBI  0x15,7
                 ; 0000 0125 	delay_ms (2);
000256 e0a2      	LDI  R26,LOW(2)
000257 e0b0      	LDI  R27,0
000258 940e 1c7d 	CALL _delay_ms
                 ; 0000 0126     if(PINC.4 == 0)
00025a 999c      	SBIC 0x13,4
00025b c003      	RJMP _0x3A
                 ; 0000 0127         col = 0;
                +
00025c e000     +LDI R16 , LOW ( 0 )
00025d e010     +LDI R17 , HIGH ( 0 )
                 	__GETWRN 16,17,0
                 ; 0000 0128     else if(PINC.5 == 0)
00025e c00e      	RJMP _0x3B
                 _0x3A:
00025f 999d      	SBIC 0x13,5
000260 c003      	RJMP _0x3C
                 ; 0000 0129         col = 1;
                +
000261 e001     +LDI R16 , LOW ( 1 )
000262 e010     +LDI R17 , HIGH ( 1 )
                 	__GETWRN 16,17,1
                 ; 0000 012A     else if(PINC.6 == 0)
000263 c009      	RJMP _0x3D
                 _0x3C:
000264 999e      	SBIC 0x13,6
000265 c003      	RJMP _0x3E
                 ; 0000 012B         col = 2;
                +
000266 e002     +LDI R16 , LOW ( 2 )
000267 e010     +LDI R17 , HIGH ( 2 )
                 	__GETWRN 16,17,2
                 ; 0000 012C     else if(PINC.7 == 0)
000268 c004      	RJMP _0x3F
                 _0x3E:
000269 999f      	SBIC 0x13,7
00026a c002      	RJMP _0x40
                 ; 0000 012D         col = 3;
                +
00026b e003     +LDI R16 , LOW ( 3 )
00026c e010     +LDI R17 , HIGH ( 3 )
                 	__GETWRN 16,17,3
                 ; 0000 012E     DDRC = 0xF0;
                 _0x40:
                 _0x3F:
                 _0x3D:
                 _0x3B:
00026d efe0      	LDI  R30,LOW(240)
00026e bbe4      	OUT  0x14,R30
                 ; 0000 012F     PORTC.0 = 1;
00026f 9aa8      	SBI  0x15,0
                 ; 0000 0130     PORTC.1 = 1;
000270 9aa9      	SBI  0x15,1
                 ; 0000 0131     PORTC.2 = 1;
000271 9aaa      	SBI  0x15,2
                 ; 0000 0132     PORTC.3 = 1;
000272 9aab      	SBI  0x15,3
                 ; 0000 0133     PORTC.4 = 0;
000273 98ac      	CBI  0x15,4
                 ; 0000 0134     PORTC.5 = 0;
000274 98ad      	CBI  0x15,5
                 ; 0000 0135     PORTC.6 = 0;
000275 98ae      	CBI  0x15,6
                 ; 0000 0136     PORTC.7 = 0;
000276 98af      	CBI  0x15,7
                 ; 0000 0137 
                 ; 0000 0138     delay_ms(2);
000277 e0a2      	LDI  R26,LOW(2)
000278 e0b0      	LDI  R27,0
000279 940e 1c7d 	CALL _delay_ms
                 ; 0000 0139 
                 ; 0000 013A     if(PINC.0 == 0)
00027b 9998      	SBIC 0x13,0
00027c c003      	RJMP _0x51
                 ; 0000 013B         row = 0;
                +
00027d e020     +LDI R18 , LOW ( 0 )
00027e e030     +LDI R19 , HIGH ( 0 )
                 	__GETWRN 18,19,0
                 ; 0000 013C     else if(PINC.1 == 0)
00027f c00e      	RJMP _0x52
                 _0x51:
000280 9999      	SBIC 0x13,1
000281 c003      	RJMP _0x53
                 ; 0000 013D         row = 1;
                +
000282 e021     +LDI R18 , LOW ( 1 )
000283 e030     +LDI R19 , HIGH ( 1 )
                 	__GETWRN 18,19,1
                 ; 0000 013E     else if(PINC.2 == 0)
000284 c009      	RJMP _0x54
                 _0x53:
000285 999a      	SBIC 0x13,2
000286 c003      	RJMP _0x55
                 ; 0000 013F         row = 2;
                +
000287 e022     +LDI R18 , LOW ( 2 )
000288 e030     +LDI R19 , HIGH ( 2 )
                 	__GETWRN 18,19,2
                 ; 0000 0140     else if(PINC.3 == 0)
000289 c004      	RJMP _0x56
                 _0x55:
00028a 999b      	SBIC 0x13,3
00028b c002      	RJMP _0x57
                 ; 0000 0141         row = 3;
                +
00028c e023     +LDI R18 , LOW ( 3 )
00028d e030     +LDI R19 , HIGH ( 3 )
                 	__GETWRN 18,19,3
                 ; 0000 0142 
                 ; 0000 0143 
                 ; 0000 0144     if(col == 3){
                 _0x57:
                 _0x56:
                 _0x54:
                 _0x52:
00028e e0e3      	LDI  R30,LOW(3)
00028f e0f0      	LDI  R31,HIGH(3)
000290 17e0      	CP   R30,R16
000291 07f1      	CPC  R31,R17
000292 f4f9      	BRNE _0x58
                 ; 0000 0145         if(row == 3)
000293 17e2      	CP   R30,R18
000294 07f3      	CPC  R31,R19
000295 f431      	BRNE _0x59
                 ; 0000 0146             return ENTER;
000296 eee8      	LDI  R30,LOW(1000)
000297 e0f3      	LDI  R31,HIGH(1000)
000298 940e 1dcb 	CALL __LOADLOCR4
00029a 940c 088e 	JMP  _0x20E0015
                 ; 0000 0147         if(row == 2)
                 _0x59:
00029c e0e2      	LDI  R30,LOW(2)
00029d e0f0      	LDI  R31,HIGH(2)
00029e 17e2      	CP   R30,R18
00029f 07f3      	CPC  R31,R19
0002a0 f431      	BRNE _0x5A
                 ; 0000 0148             return WRITE;
0002a1 e4ec      	LDI  R30,LOW(1100)
0002a2 e0f4      	LDI  R31,HIGH(1100)
0002a3 940e 1dcb 	CALL __LOADLOCR4
0002a5 940c 088e 	JMP  _0x20E0015
                 ; 0000 0149         if(row == 1)
                 _0x5A:
0002a7 e0e1      	LDI  R30,LOW(1)
0002a8 e0f0      	LDI  R31,HIGH(1)
0002a9 17e2      	CP   R30,R18
0002aa 07f3      	CPC  R31,R19
0002ab f431      	BRNE _0x5B
                 ; 0000 014A             return READ;
0002ac ebe0      	LDI  R30,LOW(1200)
0002ad e0f4      	LDI  R31,HIGH(1200)
0002ae 940e 1dcb 	CALL __LOADLOCR4
0002b0 940c 088e 	JMP  _0x20E0015
                 ; 0000 014B 
                 ; 0000 014C     }
                 _0x5B:
                 ; 0000 014D 
                 ; 0000 014E     if(row == 0)
                 _0x58:
0002b2 2e02      	MOV  R0,R18
0002b3 2a03      	OR   R0,R19
0002b4 f449      	BRNE _0x5C
                 ; 0000 014F         if(col != 0)
0002b5 2e00      	MOV  R0,R16
0002b6 2a01      	OR   R0,R17
0002b7 f031      	BREQ _0x5D
                 ; 0000 0150             return -1;
0002b8 efef      	LDI  R30,LOW(65535)
0002b9 efff      	LDI  R31,HIGH(65535)
0002ba 940e 1dcb 	CALL __LOADLOCR4
0002bc 940c 088e 	JMP  _0x20E0015
                 ; 0000 0151 
                 ; 0000 0152     if(col==-1)
                 _0x5D:
                 _0x5C:
0002be efef      	LDI  R30,LOW(65535)
0002bf efff      	LDI  R31,HIGH(65535)
0002c0 17e0      	CP   R30,R16
0002c1 07f1      	CPC  R31,R17
0002c2 f429      	BRNE _0x5E
                 ; 0000 0153         return col;
0002c3 01f8      	MOVW R30,R16
0002c4 940e 1dcb 	CALL __LOADLOCR4
0002c6 940c 088e 	JMP  _0x20E0015
                 ; 0000 0154 
                 ; 0000 0155     return col*3+row ;
                 _0x5E:
0002c8 01f8      	MOVW R30,R16
0002c9 e0a3      	LDI  R26,LOW(3)
0002ca e0b0      	LDI  R27,HIGH(3)
0002cb 940e 1d1f 	CALL __MULW12
0002cd 0fe2      	ADD  R30,R18
0002ce 1ff3      	ADC  R31,R19
0002cf 940e 1dcb 	CALL __LOADLOCR4
0002d1 940c 088e 	JMP  _0x20E0015
                 ; 0000 0156 
                 ; 0000 0157 }
                 ; .FEND
                 ;void readNumber(){
                 ; 0000 0158 void readNumber(){
                 ; 0000 0159     readKey();
                 ; 0000 015A }
                 	#ifndef __SLEEP_DEFINED__
                 	#endif
                 
                 	.DSEG
                 
                 	.CSEG
                 __lcd_write_nibble_G100:
                 ; .FSTART __lcd_write_nibble_G100
0002d3 93aa      	ST   -Y,R26
0002d4 b3eb      	IN   R30,0x1B
0002d5 70ef      	ANDI R30,LOW(0xF)
0002d6 2fae      	MOV  R26,R30
0002d7 81e8      	LD   R30,Y
0002d8 7fe0      	ANDI R30,LOW(0xF0)
0002d9 2bea      	OR   R30,R26
0002da bbeb      	OUT  0x1B,R30
                +
0002db e08d     +LDI R24 , LOW ( 13 )
                +__DELAY_USB_LOOP :
0002dc 958a     +DEC R24
0002dd f7f1     +BRNE __DELAY_USB_LOOP
                 	__DELAY_USB 13
0002de 9adb      	SBI  0x1B,3
                +
0002df e08d     +LDI R24 , LOW ( 13 )
                +__DELAY_USB_LOOP :
0002e0 958a     +DEC R24
0002e1 f7f1     +BRNE __DELAY_USB_LOOP
                 	__DELAY_USB 13
0002e2 98db      	CBI  0x1B,3
                +
0002e3 e08d     +LDI R24 , LOW ( 13 )
                +__DELAY_USB_LOOP :
0002e4 958a     +DEC R24
0002e5 f7f1     +BRNE __DELAY_USB_LOOP
                 	__DELAY_USB 13
0002e6 940c 0577 	JMP  _0x20E001A
                 ; .FEND
                 __lcd_write_data:
                 ; .FSTART __lcd_write_data
0002e8 93aa      	ST   -Y,R26
0002e9 81a8      	LD   R26,Y
0002ea dfe8      	RCALL __lcd_write_nibble_G100
0002eb 81e8          ld    r30,y
0002ec 95e2          swap  r30
0002ed 83e8          st    y,r30
0002ee 81a8      	LD   R26,Y
0002ef dfe3      	RCALL __lcd_write_nibble_G100
                +
0002f0 e885     +LDI R24 , LOW ( 133 )
                +__DELAY_USB_LOOP :
0002f1 958a     +DEC R24
0002f2 f7f1     +BRNE __DELAY_USB_LOOP
                 	__DELAY_USB 133
0002f3 c283      	RJMP _0x20E001A
                 ; .FEND
                 _lcd_gotoxy:
                 ; .FSTART _lcd_gotoxy
0002f4 93aa      	ST   -Y,R26
0002f5 81e8      	LD   R30,Y
0002f6 e0f0      	LDI  R31,0
0002f7 5de6      	SUBI R30,LOW(-__base_y_G100)
0002f8 4ff8      	SBCI R31,HIGH(-__base_y_G100)
0002f9 81e0      	LD   R30,Z
0002fa 81a9      	LDD  R26,Y+1
0002fb 0fae      	ADD  R26,R30
0002fc dfeb      	RCALL __lcd_write_data
0002fd 8099      	LDD  R9,Y+1
0002fe 8088      	LDD  R8,Y+0
                 _0x20E001D:
0002ff 9622      	ADIW R28,2
000300 9508      	RET
                 ; .FEND
                 _lcd_clear:
                 ; .FSTART _lcd_clear
000301 e0a2      	LDI  R26,LOW(2)
000302 940e 1873 	CALL SUBOPT_0x9
000304 e0ac      	LDI  R26,LOW(12)
000305 dfe2      	RCALL __lcd_write_data
000306 e0a1      	LDI  R26,LOW(1)
000307 940e 1873 	CALL SUBOPT_0x9
000309 e0e0      	LDI  R30,LOW(0)
00030a 2e8e      	MOV  R8,R30
00030b 2e9e      	MOV  R9,R30
00030c 9508      	RET
                 ; .FEND
                 _lcd_putchar:
                 ; .FSTART _lcd_putchar
00030d 93aa      	ST   -Y,R26
00030e 81a8      	LD   R26,Y
00030f 30aa      	CPI  R26,LOW(0xA)
000310 f011      	BREQ _0x2000005
000311 149b      	CP   R9,R11
000312 f048      	BRLO _0x2000004
                 _0x2000005:
000313 e0e0      	LDI  R30,LOW(0)
000314 93ea      	ST   -Y,R30
000315 9483      	INC  R8
000316 2da8      	MOV  R26,R8
000317 dfdc      	RCALL _lcd_gotoxy
000318 81a8      	LD   R26,Y
000319 30aa      	CPI  R26,LOW(0xA)
00031a f409      	BRNE _0x2000007
00031b c25b      	RJMP _0x20E001A
                 _0x2000007:
                 _0x2000004:
00031c 9493      	INC  R9
00031d 9ad9      	SBI  0x1B,1
00031e 81a8      	LD   R26,Y
00031f dfc8      	RCALL __lcd_write_data
000320 98d9      	CBI  0x1B,1
000321 c255      	RJMP _0x20E001A
                 ; .FEND
                 _lcd_puts:
                 ; .FSTART _lcd_puts
000322 93ba      	ST   -Y,R27
000323 93aa      	ST   -Y,R26
000324 931a      	ST   -Y,R17
                 _0x2000008:
000325 81a9      	LDD  R26,Y+1
000326 81ba      	LDD  R27,Y+1+1
000327 91ed      	LD   R30,X+
000328 83a9      	STD  Y+1,R26
000329 83ba      	STD  Y+1+1,R27
00032a 2f1e      	MOV  R17,R30
00032b 30e0      	CPI  R30,0
00032c f019      	BREQ _0x200000A
00032d 2fa1      	MOV  R26,R17
00032e dfde      	RCALL _lcd_putchar
00032f cff5      	RJMP _0x2000008
                 _0x200000A:
000330 8118      	LDD  R17,Y+0
000331 9623      	ADIW R28,3
000332 9508      	RET
                 ; .FEND
                 _lcd_init:
                 ; .FSTART _lcd_init
000333 93aa      	ST   -Y,R26
000334 b3ea      	IN   R30,0x1A
000335 6fe0      	ORI  R30,LOW(0xF0)
000336 bbea      	OUT  0x1A,R30
000337 9ad3      	SBI  0x1A,3
000338 9ad1      	SBI  0x1A,1
000339 9ad2      	SBI  0x1A,2
00033a 98db      	CBI  0x1B,3
00033b 98d9      	CBI  0x1B,1
00033c 98da      	CBI  0x1B,2
00033d 80b8      	LDD  R11,Y+0
00033e 81e8      	LD   R30,Y
00033f 58e0      	SUBI R30,-LOW(128)
                +
000340 93e0 072c+STS __base_y_G100 + ( 2 ) , R30
                 	__PUTB1MN __base_y_G100,2
000342 81e8      	LD   R30,Y
000343 54e0      	SUBI R30,-LOW(192)
                +
000344 93e0 072d+STS __base_y_G100 + ( 3 ) , R30
                 	__PUTB1MN __base_y_G100,3
000346 e1a4      	LDI  R26,LOW(20)
000347 e0b0      	LDI  R27,0
000348 940e 1c7d 	CALL _delay_ms
00034a 940e 1879 	CALL SUBOPT_0xA
00034c 940e 1879 	CALL SUBOPT_0xA
00034e 940e 1879 	CALL SUBOPT_0xA
000350 e2a0      	LDI  R26,LOW(32)
000351 df81      	RCALL __lcd_write_nibble_G100
                +
000352 ec88     +LDI R24 , LOW ( 200 )
000353 e090     +LDI R25 , HIGH ( 200 )
                +__DELAY_USW_LOOP :
000354 9701     +SBIW R24 , 1
000355 f7f1     +BRNE __DELAY_USW_LOOP
                 	__DELAY_USW 200
000356 e2a8      	LDI  R26,LOW(40)
000357 df90      	RCALL __lcd_write_data
000358 e0a4      	LDI  R26,LOW(4)
000359 df8e      	RCALL __lcd_write_data
00035a e8a5      	LDI  R26,LOW(133)
00035b df8c      	RCALL __lcd_write_data
00035c e0a6      	LDI  R26,LOW(6)
00035d df8a      	RCALL __lcd_write_data
00035e dfa2      	RCALL _lcd_clear
00035f c217      	RJMP _0x20E001A
                 ; .FEND
                 	#ifndef __SLEEP_DEFINED__
                 	#endif
                 
                 	.DSEG
                 
                 	.CSEG
                 _crc7_G101:
                 ; .FSTART _crc7_G101
000360 93aa      	ST   -Y,R26
000361 940e 1dc4 	CALL __SAVELOCR4
000363 e020      	LDI  R18,LOW(0)
000364 810c      	LDD  R16,Y+4
                 _0x2020005:
000365 81ad      	LDD  R26,Y+5
000366 81be      	LDD  R27,Y+5+1
000367 913d      	LD   R19,X+
000368 83ad      	STD  Y+5,R26
000369 83be      	STD  Y+5+1,R27
00036a e018      	LDI  R17,LOW(8)
                 _0x2020008:
00036b 0f22      	LSL  R18
00036c 2fe2      	MOV  R30,R18
00036d 27e3      	EOR  R30,R19
00036e 78e0      	ANDI R30,LOW(0x80)
00036f f011      	BREQ _0x202000A
000370 e0e9      	LDI  R30,LOW(9)
000371 272e      	EOR  R18,R30
                 _0x202000A:
000372 0f33      	LSL  R19
000373 5011      	SUBI R17,LOW(1)
000374 f7b1      	BRNE _0x2020008
000375 5001      	SUBI R16,LOW(1)
000376 f771      	BRNE _0x2020005
000377 2fe2      	MOV  R30,R18
000378 0fee      	LSL  R30
000379 60e1      	ORI  R30,1
00037a 940e 1dcb 	CALL __LOADLOCR4
00037c c4fa      	RJMP _0x20E0016
                 ; .FEND
                 _wait_ready_G101:
                 ; .FSTART _wait_ready_G101
00037d 931a      	ST   -Y,R17
00037e e3e2      	LDI  R30,LOW(50)
00037f 93e0 0730 	STS  _timer2_G101,R30
000381 efef      	LDI  R30,LOW(255)
000382 b9ef      	OUT  0xF,R30
                 _0x202000B:
000383 9b77      	SBIS 0xE,7
000384 cffe      	RJMP _0x202000B
                 _0x202000F:
000385 efef      	LDI  R30,LOW(255)
000386 b9ef      	OUT  0xF,R30
                 _0x2020011:
000387 9b77      	SBIS 0xE,7
000388 cffe      	RJMP _0x2020011
000389 b11f      	IN   R17,15
00038a 3f1f      	CPI  R17,255
00038b f021      	BREQ _0x2020014
00038c 91e0 0730 	LDS  R30,_timer2_G101
00038e 30e0      	CPI  R30,0
00038f f409      	BRNE _0x2020015
                 _0x2020014:
000390 c001      	RJMP _0x2020010
                 _0x2020015:
000391 cff3      	RJMP _0x202000F
                 _0x2020010:
000392 2fe1      	MOV  R30,R17
000393 c462      	RJMP _0x20E0017
                 ; .FEND
                 _deselect_card_G101:
                 ; .FSTART _deselect_card_G101
000394 9ac4      	SBI  0x18,4
000395 efef      	LDI  R30,LOW(255)
000396 b9ef      	OUT  0xF,R30
                 _0x2020016:
000397 9b77      	SBIS 0xE,7
000398 cffe      	RJMP _0x2020016
000399 9508      	RET
                 ; .FEND
                 _rx_datablock_G101:
                 ; .FSTART _rx_datablock_G101
00039a 93ba      	ST   -Y,R27
00039b 93aa      	ST   -Y,R26
00039c 940e 1dc4 	CALL __SAVELOCR4
00039e e1e4      	LDI  R30,LOW(20)
00039f 93e0 072f 	STS  _timer1_G101,R30
                 _0x202001A:
0003a1 efef      	LDI  R30,LOW(255)
0003a2 b9ef      	OUT  0xF,R30
                 _0x202001C:
0003a3 9b77      	SBIS 0xE,7
0003a4 cffe      	RJMP _0x202001C
0003a5 b11f      	IN   R17,15
0003a6 3f1f      	CPI  R17,255
0003a7 f421      	BRNE _0x202001F
0003a8 91e0 072f 	LDS  R30,_timer1_G101
0003aa 30e0      	CPI  R30,0
0003ab f409      	BRNE _0x2020020
                 _0x202001F:
0003ac c001      	RJMP _0x202001B
                 _0x2020020:
0003ad cff3      	RJMP _0x202001A
                 _0x202001B:
0003ae 3f1e      	CPI  R17,254
0003af f021      	BREQ _0x2020021
0003b0 e0e0      	LDI  R30,LOW(0)
0003b1 940e 1dcb 	CALL __LOADLOCR4
0003b3 c29e      	RJMP _0x20E0019
                 _0x2020021:
                +
0003b4 812e     +LDD R18 , Y + 6
0003b5 813f     +LDD R19 , Y + 6 + 1
                 	__GETWRS 18,19,6
                 _0x2020023:
0003b6 efef      	LDI  R30,LOW(255)
0003b7 b9ef      	OUT  0xF,R30
                 _0x2020025:
0003b8 9b77      	SBIS 0xE,7
0003b9 cffe      	RJMP _0x2020025
0003ba 933f      	PUSH R19
0003bb 932f      	PUSH R18
                +
0003bc 5f2f     +SUBI R18 , LOW ( - 1 )
0003bd 4f3f     +SBCI R19 , HIGH ( - 1 )
                 	__ADDWRN 18,19,1
0003be b1ef      	IN   R30,0xF
0003bf 91af      	POP  R26
0003c0 91bf      	POP  R27
0003c1 93ec      	ST   X,R30
0003c2 efef      	LDI  R30,LOW(255)
0003c3 b9ef      	OUT  0xF,R30
                 _0x2020028:
0003c4 9b77      	SBIS 0xE,7
0003c5 cffe      	RJMP _0x2020028
0003c6 933f      	PUSH R19
0003c7 932f      	PUSH R18
                +
0003c8 5f2f     +SUBI R18 , LOW ( - 1 )
0003c9 4f3f     +SBCI R19 , HIGH ( - 1 )
                 	__ADDWRN 18,19,1
0003ca b1ef      	IN   R30,0xF
0003cb 91af      	POP  R26
0003cc 91bf      	POP  R27
0003cd 93ec      	ST   X,R30
0003ce efef      	LDI  R30,LOW(255)
0003cf b9ef      	OUT  0xF,R30
                 _0x202002B:
0003d0 9b77      	SBIS 0xE,7
0003d1 cffe      	RJMP _0x202002B
0003d2 933f      	PUSH R19
0003d3 932f      	PUSH R18
                +
0003d4 5f2f     +SUBI R18 , LOW ( - 1 )
0003d5 4f3f     +SBCI R19 , HIGH ( - 1 )
                 	__ADDWRN 18,19,1
0003d6 b1ef      	IN   R30,0xF
0003d7 91af      	POP  R26
0003d8 91bf      	POP  R27
0003d9 93ec      	ST   X,R30
0003da efef      	LDI  R30,LOW(255)
0003db b9ef      	OUT  0xF,R30
                 _0x202002E:
0003dc 9b77      	SBIS 0xE,7
0003dd cffe      	RJMP _0x202002E
0003de 933f      	PUSH R19
0003df 932f      	PUSH R18
                +
0003e0 5f2f     +SUBI R18 , LOW ( - 1 )
0003e1 4f3f     +SBCI R19 , HIGH ( - 1 )
                 	__ADDWRN 18,19,1
0003e2 b1ef      	IN   R30,0xF
0003e3 91af      	POP  R26
0003e4 91bf      	POP  R27
0003e5 93ec      	ST   X,R30
0003e6 81ec      	LDD  R30,Y+4
0003e7 81fd      	LDD  R31,Y+4+1
0003e8 9734      	SBIW R30,4
0003e9 83ec      	STD  Y+4,R30
0003ea 83fd      	STD  Y+4+1,R31
0003eb f651      	BRNE _0x2020023
0003ec efef      	LDI  R30,LOW(255)
0003ed b9ef      	OUT  0xF,R30
                 _0x2020031:
0003ee 9b77      	SBIS 0xE,7
0003ef cffe      	RJMP _0x2020031
0003f0 efef      	LDI  R30,LOW(255)
0003f1 b9ef      	OUT  0xF,R30
                 _0x2020034:
0003f2 9b77      	SBIS 0xE,7
0003f3 cffe      	RJMP _0x2020034
0003f4 e0e1      	LDI  R30,LOW(1)
0003f5 940e 1dcb 	CALL __LOADLOCR4
0003f7 c25a      	RJMP _0x20E0019
                 ; .FEND
                 _tx_datablock_G101:
                 ; .FSTART _tx_datablock_G101
0003f8 93aa      	ST   -Y,R26
0003f9 940e 1dc4 	CALL __SAVELOCR4
0003fb df81      	RCALL _wait_ready_G101
0003fc 3fef      	CPI  R30,LOW(0xFF)
0003fd f021      	BREQ _0x2020037
0003fe e0e0      	LDI  R30,LOW(0)
0003ff 940e 1dcb 	CALL __LOADLOCR4
000401 c475      	RJMP _0x20E0016
                 _0x2020037:
000402 81ec      	LDD  R30,Y+4
000403 b9ef      	OUT  0xF,R30
                 _0x2020038:
000404 9b77      	SBIS 0xE,7
000405 cffe      	RJMP _0x2020038
000406 81ac      	LDD  R26,Y+4
000407 3fad      	CPI  R26,LOW(0xFD)
000408 f141      	BREQ _0x202003B
000409 e000      	LDI  R16,LOW(0)
                +
00040a 812d     +LDD R18 , Y + 5
00040b 813e     +LDD R19 , Y + 5 + 1
                 	__GETWRS 18,19,5
                 _0x202003D:
00040c 01d9      	MOVW R26,R18
                +
00040d 5f2f     +SUBI R18 , LOW ( - 1 )
00040e 4f3f     +SBCI R19 , HIGH ( - 1 )
                 	__ADDWRN 18,19,1
00040f 91ec      	LD   R30,X
000410 b9ef      	OUT  0xF,R30
                 _0x202003F:
000411 9b77      	SBIS 0xE,7
000412 cffe      	RJMP _0x202003F
000413 01d9      	MOVW R26,R18
                +
000414 5f2f     +SUBI R18 , LOW ( - 1 )
000415 4f3f     +SBCI R19 , HIGH ( - 1 )
                 	__ADDWRN 18,19,1
000416 91ec      	LD   R30,X
000417 b9ef      	OUT  0xF,R30
                 _0x2020042:
000418 9b77      	SBIS 0xE,7
000419 cffe      	RJMP _0x2020042
00041a 5001      	SUBI R16,LOW(1)
00041b f781      	BRNE _0x202003D
00041c efef      	LDI  R30,LOW(255)
00041d b9ef      	OUT  0xF,R30
                 _0x2020045:
00041e 9b77      	SBIS 0xE,7
00041f cffe      	RJMP _0x2020045
000420 efef      	LDI  R30,LOW(255)
000421 b9ef      	OUT  0xF,R30
                 _0x2020048:
000422 9b77      	SBIS 0xE,7
000423 cffe      	RJMP _0x2020048
000424 efef      	LDI  R30,LOW(255)
000425 b9ef      	OUT  0xF,R30
                 _0x202004B:
000426 9b77      	SBIS 0xE,7
000427 cffe      	RJMP _0x202004B
000428 b11f      	IN   R17,15
000429 2fe1      	MOV  R30,R17
00042a 71ef      	ANDI R30,LOW(0x1F)
00042b 30e5      	CPI  R30,LOW(0x5)
00042c f021      	BREQ _0x202004E
00042d e0e0      	LDI  R30,LOW(0)
00042e 940e 1dcb 	CALL __LOADLOCR4
000430 c446      	RJMP _0x20E0016
                 _0x202004E:
                 _0x202003B:
000431 e0e1      	LDI  R30,LOW(1)
000432 940e 1dcb 	CALL __LOADLOCR4
000434 c442      	RJMP _0x20E0016
                 ; .FEND
                 _send_cmd_G101:
                 ; .FSTART _send_cmd_G101
000435 940e 1d9c 	CALL __PUTPARD2
000437 931a      	ST   -Y,R17
000438 930a      	ST   -Y,R16
000439 81ee      	LDD  R30,Y+6
00043a 78e0      	ANDI R30,LOW(0x80)
00043b f081      	BREQ _0x202004F
00043c 81ee      	LDD  R30,Y+6
00043d 77ef      	ANDI R30,0x7F
00043e 83ee      	STD  Y+6,R30
00043f e7e7      	LDI  R30,LOW(119)
000440 93ea      	ST   -Y,R30
                +
000441 e0a0     +LDI R26 , LOW ( 0x0 )
000442 e0b0     +LDI R27 , HIGH ( 0x0 )
000443 e080     +LDI R24 , BYTE3 ( 0x0 )
000444 e090     +LDI R25 , BYTE4 ( 0x0 )
                 	__GETD2N 0x0
000445 dfef      	RCALL _send_cmd_G101
000446 2f0e      	MOV  R16,R30
000447 3002      	CPI  R16,2
000448 f018      	BRLO _0x2020050
000449 8119      	LDD  R17,Y+1
00044a 8108      	LDD  R16,Y+0
00044b c42b      	RJMP _0x20E0016
                 _0x2020050:
                 _0x202004F:
00044c 81ae      	LDD  R26,Y+6
00044d 34ac      	CPI  R26,LOW(0x4C)
00044e f049      	BREQ _0x2020051
00044f df44      	RCALL _deselect_card_G101
000450 98c4      	CBI  0x18,4
000451 df2b      	RCALL _wait_ready_G101
000452 3fef      	CPI  R30,LOW(0xFF)
000453 f021      	BREQ _0x2020052
000454 efef      	LDI  R30,LOW(255)
000455 8119      	LDD  R17,Y+1
000456 8108      	LDD  R16,Y+0
000457 c41f      	RJMP _0x20E0016
                 _0x2020052:
                 _0x2020051:
000458 81ee      	LDD  R30,Y+6
000459 b9ef      	OUT  0xF,R30
                 _0x2020053:
00045a 9b77      	SBIS 0xE,7
00045b cffe      	RJMP _0x2020053
00045c 81ed      	LDD  R30,Y+5
00045d b9ef      	OUT  0xF,R30
                 _0x2020056:
00045e 9b77      	SBIS 0xE,7
00045f cffe      	RJMP _0x2020056
000460 81ec      	LDD  R30,Y+4
000461 b9ef      	OUT  0xF,R30
                 _0x2020059:
000462 9b77      	SBIS 0xE,7
000463 cffe      	RJMP _0x2020059
000464 81eb      	LDD  R30,Y+3
000465 b9ef      	OUT  0xF,R30
                 _0x202005C:
000466 9b77      	SBIS 0xE,7
000467 cffe      	RJMP _0x202005C
000468 81ea      	LDD  R30,Y+2
000469 b9ef      	OUT  0xF,R30
                 _0x202005F:
00046a 9b77      	SBIS 0xE,7
00046b cffe      	RJMP _0x202005F
00046c e011      	LDI  R17,LOW(1)
00046d 81ae      	LDD  R26,Y+6
00046e 34a0      	CPI  R26,LOW(0x40)
00046f f411      	BRNE _0x2020062
000470 e915      	LDI  R17,LOW(149)
000471 c004      	RJMP _0x2020063
                 _0x2020062:
000472 81ae      	LDD  R26,Y+6
000473 34a8      	CPI  R26,LOW(0x48)
000474 f409      	BRNE _0x2020064
000475 e817      	LDI  R17,LOW(135)
                 _0x2020064:
                 _0x2020063:
000476 b91f      	OUT  0xF,R17
                 _0x2020065:
000477 9b77      	SBIS 0xE,7
000478 cffe      	RJMP _0x2020065
000479 81ae      	LDD  R26,Y+6
00047a 34ac      	CPI  R26,LOW(0x4C)
00047b f421      	BRNE _0x2020068
00047c efef      	LDI  R30,LOW(255)
00047d b9ef      	OUT  0xF,R30
                 _0x2020069:
00047e 9b77      	SBIS 0xE,7
00047f cffe      	RJMP _0x2020069
                 _0x2020068:
000480 ef1f      	LDI  R17,LOW(255)
                 _0x202006D:
000481 efef      	LDI  R30,LOW(255)
000482 b9ef      	OUT  0xF,R30
                 _0x202006F:
000483 9b77      	SBIS 0xE,7
000484 cffe      	RJMP _0x202006F
000485 b10f      	IN   R16,15
000486 ff07      	SBRS R16,7
000487 c002      	RJMP _0x2020072
000488 5011      	SUBI R17,LOW(1)
000489 f409      	BRNE _0x2020073
                 _0x2020072:
00048a c001      	RJMP _0x202006E
                 _0x2020073:
00048b cff5      	RJMP _0x202006D
                 _0x202006E:
00048c 2fe0      	MOV  R30,R16
00048d 8119      	LDD  R17,Y+1
00048e 8108      	LDD  R16,Y+0
00048f c3e7      	RJMP _0x20E0016
                 ; .FEND
                 _rx_spi4_G101:
                 ; .FSTART _rx_spi4_G101
000490 93ba      	ST   -Y,R27
000491 93aa      	ST   -Y,R26
000492 931a      	ST   -Y,R17
000493 e014      	LDI  R17,4
                 _0x2020075:
000494 efef      	LDI  R30,LOW(255)
000495 b9ef      	OUT  0xF,R30
                 _0x2020077:
000496 9b77      	SBIS 0xE,7
000497 cffe      	RJMP _0x2020077
000498 81a9      	LDD  R26,Y+1
000499 81ba      	LDD  R27,Y+1+1
00049a 9611      	ADIW R26,1
00049b 83a9      	STD  Y+1,R26
00049c 83ba      	STD  Y+1+1,R27
00049d 9711      	SBIW R26,1
00049e b1ef      	IN   R30,0xF
00049f 93ec      	ST   X,R30
0004a0 5011      	SUBI R17,LOW(1)
0004a1 f791      	BRNE _0x2020075
0004a2 c4b8      	RJMP _0x20E0013
                 ; .FEND
                 _disk_initialize:
                 ; .FSTART _disk_initialize
0004a3 93aa      	ST   -Y,R26
0004a4 9724      	SBIW R28,4
0004a5 940e 1dc4 	CALL __SAVELOCR4
0004a7 85e8      	LDD  R30,Y+8
0004a8 30e0      	CPI  R30,0
0004a9 f011      	BREQ _0x202007A
0004aa e0e1      	LDI  R30,LOW(1)
0004ab c0bf      	RJMP _0x20E001C
                 _0x202007A:
0004ac e0ea      	LDI  R30,LOW(10)
0004ad 93e0 072f 	STS  _timer1_G101,R30
                 _0x202007B:
0004af 91e0 072f 	LDS  R30,_timer1_G101
0004b1 30e0      	CPI  R30,0
0004b2 f7e1      	BRNE _0x202007B
0004b3 91e0 072e 	LDS  R30,_status_G101
0004b5 70e2      	ANDI R30,LOW(0x2)
0004b6 f009      	BREQ _0x202007E
0004b7 c0b1      	RJMP _0x20E001B
                 _0x202007E:
0004b8 9abc      	SBI  0x17,4
0004b9 9ac4      	SBI  0x18,4
0004ba b3e8      	IN   R30,0x18
0004bb 75ef      	ANDI R30,LOW(0x5F)
0004bc bbe8      	OUT  0x18,R30
0004bd 9ac6      	SBI  0x18,6
0004be 98be      	CBI  0x17,6
0004bf b3e7      	IN   R30,0x17
0004c0 6be0      	ORI  R30,LOW(0xB0)
0004c1 bbe7      	OUT  0x17,R30
0004c2 e5e2      	LDI  R30,LOW(82)
0004c3 b9ed      	OUT  0xD,R30
0004c4 e0e0      	LDI  R30,LOW(0)
0004c5 b9ee      	OUT  0xE,R30
0004c6 e035      	LDI  R19,LOW(5)
                 _0x2020080:
0004c7 e01a      	LDI  R17,LOW(10)
                 _0x2020083:
0004c8 efef      	LDI  R30,LOW(255)
0004c9 b9ef      	OUT  0xF,R30
                 _0x2020085:
0004ca 9b77      	SBIS 0xE,7
0004cb cffe      	RJMP _0x2020085
0004cc 5011      	SUBI R17,LOW(1)
0004cd f7d1      	BRNE _0x2020083
0004ce e4e0      	LDI  R30,LOW(64)
0004cf 93ea      	ST   -Y,R30
                +
0004d0 e0a0     +LDI R26 , LOW ( 0x0 )
0004d1 e0b0     +LDI R27 , HIGH ( 0x0 )
0004d2 e080     +LDI R24 , BYTE3 ( 0x0 )
0004d3 e090     +LDI R25 , BYTE4 ( 0x0 )
                 	__GETD2N 0x0
0004d4 df60      	RCALL _send_cmd_G101
0004d5 2f0e      	MOV  R16,R30
0004d6 5031      	SUBI R19,LOW(1)
0004d7 3001      	CPI  R16,1
0004d8 f011      	BREQ _0x2020088
0004d9 3030      	CPI  R19,0
0004da f409      	BRNE _0x2020089
                 _0x2020088:
0004db c001      	RJMP _0x2020081
                 _0x2020089:
0004dc cfea      	RJMP _0x2020080
                 _0x2020081:
0004dd e030      	LDI  R19,LOW(0)
0004de 3001      	CPI  R16,1
0004df f009      	BREQ PC+2
0004e0 c068      	RJMP _0x202008A
0004e1 e6e4      	LDI  R30,LOW(100)
0004e2 93e0 072f 	STS  _timer1_G101,R30
0004e4 e4e8      	LDI  R30,LOW(72)
0004e5 93ea      	ST   -Y,R30
                +
0004e6 eaaa     +LDI R26 , LOW ( 0x1AA )
0004e7 e0b1     +LDI R27 , HIGH ( 0x1AA )
0004e8 e080     +LDI R24 , BYTE3 ( 0x1AA )
0004e9 e090     +LDI R25 , BYTE4 ( 0x1AA )
                 	__GETD2N 0x1AA
0004ea df4a      	RCALL _send_cmd_G101
0004eb 30e1      	CPI  R30,LOW(0x1)
0004ec f591      	BRNE _0x202008B
0004ed 01de      	MOVW R26,R28
0004ee 9614      	ADIW R26,4
0004ef dfa0      	RCALL _rx_spi4_G101
0004f0 81ae      	LDD  R26,Y+6
0004f1 30a1      	CPI  R26,LOW(0x1)
0004f2 f419      	BRNE _0x202008D
0004f3 81af      	LDD  R26,Y+7
0004f4 3aaa      	CPI  R26,LOW(0xAA)
0004f5 f009      	BREQ _0x202008E
                 _0x202008D:
0004f6 c027      	RJMP _0x202008C
                 _0x202008E:
                 _0x202008F:
0004f7 91e0 072f 	LDS  R30,_timer1_G101
0004f9 30e0      	CPI  R30,0
0004fa f049      	BREQ _0x2020092
0004fb eee9      	LDI  R30,LOW(233)
0004fc 93ea      	ST   -Y,R30
                +
0004fd e0a0     +LDI R26 , LOW ( 0x40000000 )
0004fe e0b0     +LDI R27 , HIGH ( 0x40000000 )
0004ff e080     +LDI R24 , BYTE3 ( 0x40000000 )
000500 e490     +LDI R25 , BYTE4 ( 0x40000000 )
                 	__GETD2N 0x40000000
000501 df33      	RCALL _send_cmd_G101
000502 30e0      	CPI  R30,0
000503 f409      	BRNE _0x2020093
                 _0x2020092:
000504 c001      	RJMP _0x2020091
                 _0x2020093:
000505 cff1      	RJMP _0x202008F
                 _0x2020091:
000506 91e0 072f 	LDS  R30,_timer1_G101
000508 30e0      	CPI  R30,0
000509 f049      	BREQ _0x2020095
00050a e7ea      	LDI  R30,LOW(122)
00050b 93ea      	ST   -Y,R30
                +
00050c e0a0     +LDI R26 , LOW ( 0x0 )
00050d e0b0     +LDI R27 , HIGH ( 0x0 )
00050e e080     +LDI R24 , BYTE3 ( 0x0 )
00050f e090     +LDI R25 , BYTE4 ( 0x0 )
                 	__GETD2N 0x0
000510 df24      	RCALL _send_cmd_G101
000511 30e0      	CPI  R30,0
000512 f009      	BREQ _0x2020096
                 _0x2020095:
000513 c00a      	RJMP _0x2020094
                 _0x2020096:
000514 01de      	MOVW R26,R28
000515 9614      	ADIW R26,4
000516 df79      	RCALL _rx_spi4_G101
000517 81ec      	LDD  R30,Y+4
000518 74e0      	ANDI R30,LOW(0x40)
000519 f011      	BREQ _0x2020097
00051a e0ec      	LDI  R30,LOW(12)
00051b c001      	RJMP _0x2020098
                 _0x2020097:
00051c e0e4      	LDI  R30,LOW(4)
                 _0x2020098:
00051d 2f3e      	MOV  R19,R30
                 _0x2020094:
                 _0x202008C:
00051e c02a      	RJMP _0x202009A
                 _0x202008B:
00051f eee9      	LDI  R30,LOW(233)
000520 93ea      	ST   -Y,R30
                +
000521 e0a0     +LDI R26 , LOW ( 0x0 )
000522 e0b0     +LDI R27 , HIGH ( 0x0 )
000523 e080     +LDI R24 , BYTE3 ( 0x0 )
000524 e090     +LDI R25 , BYTE4 ( 0x0 )
                 	__GETD2N 0x0
000525 df0f      	RCALL _send_cmd_G101
000526 30e2      	CPI  R30,LOW(0x2)
000527 f418      	BRSH _0x202009B
000528 e032      	LDI  R19,LOW(2)
000529 ee09      	LDI  R16,LOW(233)
00052a c002      	RJMP _0x202009C
                 _0x202009B:
00052b e031      	LDI  R19,LOW(1)
00052c e401      	LDI  R16,LOW(65)
                 _0x202009C:
                 _0x202009D:
00052d 91e0 072f 	LDS  R30,_timer1_G101
00052f 30e0      	CPI  R30,0
000530 f041      	BREQ _0x20200A0
000531 930a      	ST   -Y,R16
                +
000532 e0a0     +LDI R26 , LOW ( 0x0 )
000533 e0b0     +LDI R27 , HIGH ( 0x0 )
000534 e080     +LDI R24 , BYTE3 ( 0x0 )
000535 e090     +LDI R25 , BYTE4 ( 0x0 )
                 	__GETD2N 0x0
000536 defe      	RCALL _send_cmd_G101
000537 30e0      	CPI  R30,0
000538 f409      	BRNE _0x20200A1
                 _0x20200A0:
000539 c001      	RJMP _0x202009F
                 _0x20200A1:
00053a cff2      	RJMP _0x202009D
                 _0x202009F:
00053b 91e0 072f 	LDS  R30,_timer1_G101
00053d 30e0      	CPI  R30,0
00053e f049      	BREQ _0x20200A3
00053f e5e0      	LDI  R30,LOW(80)
000540 93ea      	ST   -Y,R30
                +
000541 e0a0     +LDI R26 , LOW ( 0x200 )
000542 e0b2     +LDI R27 , HIGH ( 0x200 )
000543 e080     +LDI R24 , BYTE3 ( 0x200 )
000544 e090     +LDI R25 , BYTE4 ( 0x200 )
                 	__GETD2N 0x200
000545 deef      	RCALL _send_cmd_G101
000546 30e0      	CPI  R30,0
000547 f009      	BREQ _0x20200A2
                 _0x20200A3:
000548 e030      	LDI  R19,LOW(0)
                 _0x20200A2:
                 _0x202009A:
                 _0x202008A:
000549 9330 0731 	STS  _card_type_G101,R19
00054b de48      	RCALL _deselect_card_G101
00054c 3030      	CPI  R19,0
00054d f051      	BREQ _0x20200A5
00054e 91e0 072e 	LDS  R30,_status_G101
000550 7fee      	ANDI R30,0xFE
000551 93e0 072e 	STS  _status_G101,R30
000553 e5e0      	LDI  R30,LOW(80)
000554 b9ed      	OUT  0xD,R30
000555 e0e1      	LDI  R30,LOW(1)
000556 b9ee      	OUT  0xE,R30
000557 c011      	RJMP _0x20200A6
                 _0x20200A5:
000558 98c4      	CBI  0x18,4
000559 de23      	RCALL _wait_ready_G101
00055a de39      	RCALL _deselect_card_G101
00055b e0e0      	LDI  R30,LOW(0)
00055c b9ed      	OUT  0xD,R30
00055d b3e7      	IN   R30,0x17
00055e 70ef      	ANDI R30,LOW(0xF)
00055f bbe7      	OUT  0x17,R30
000560 b3e8      	IN   R30,0x18
000561 70ef      	ANDI R30,LOW(0xF)
000562 bbe8      	OUT  0x18,R30
000563 98bc      	CBI  0x17,4
000564 91e0 072e 	LDS  R30,_status_G101
000566 60e1      	ORI  R30,1
000567 93e0 072e 	STS  _status_G101,R30
                 _0x20200A6:
                 _0x20E001B:
000569 91e0 072e 	LDS  R30,_status_G101
                 _0x20E001C:
00056b 940e 1dcb 	CALL __LOADLOCR4
00056d 9629      	ADIW R28,9
00056e 9508      	RET
                 ; .FEND
                 _disk_status:
                 ; .FSTART _disk_status
00056f 93aa      	ST   -Y,R26
000570 81e8      	LD   R30,Y
000571 30e0      	CPI  R30,0
000572 f011      	BREQ _0x20200A7
000573 e0e1      	LDI  R30,LOW(1)
000574 c002      	RJMP _0x20E001A
                 _0x20200A7:
000575 91e0 072e 	LDS  R30,_status_G101
                 _0x20E001A:
000577 9621      	ADIW R28,1
000578 9508      	RET
                 ; .FEND
                 _disk_read:
                 ; .FSTART _disk_read
000579 93aa      	ST   -Y,R26
00057a 81ef      	LDD  R30,Y+7
00057b 30e0      	CPI  R30,0
00057c f419      	BRNE _0x20200A9
00057d 81e8      	LD   R30,Y
00057e 30e0      	CPI  R30,0
00057f f411      	BRNE _0x20200A8
                 _0x20200A9:
000580 e0e4      	LDI  R30,LOW(4)
000581 c0d0      	RJMP _0x20E0019
                 _0x20200A8:
000582 91e0 072e 	LDS  R30,_status_G101
000584 70e1      	ANDI R30,LOW(0x1)
000585 f011      	BREQ _0x20200AB
000586 e0e3      	LDI  R30,LOW(3)
000587 c0ca      	RJMP _0x20E0019
                 _0x20200AB:
000588 91e0 0731 	LDS  R30,_card_type_G101
00058a 70e8      	ANDI R30,LOW(0x8)
00058b f471      	BRNE _0x20200AC
                +
00058c 81e9     +LDD R30 , Y + 1
00058d 81fa     +LDD R31 , Y + 1 + 1
00058e 816b     +LDD R22 , Y + 1 + 2
00058f 817c     +LDD R23 , Y + 1 + 3
                 	__GETD1S 1
                +
000590 e0a0     +LDI R26 , LOW ( 0x200 )
000591 e0b2     +LDI R27 , HIGH ( 0x200 )
000592 e080     +LDI R24 , BYTE3 ( 0x200 )
000593 e090     +LDI R25 , BYTE4 ( 0x200 )
                 	__GETD2N 0x200
000594 940e 1cf9 	CALL __MULD12U
                +
000596 83e9     +STD Y + 1 , R30
000597 83fa     +STD Y + 1 + 1 , R31
000598 836b     +STD Y + 1 + 2 , R22
000599 837c     +STD Y + 1 + 3 , R23
                 	__PUTD1S 1
                 _0x20200AC:
00059a 81a8      	LD   R26,Y
00059b 30a1      	CPI  R26,LOW(0x1)
00059c f4a9      	BRNE _0x20200AD
00059d e5e1      	LDI  R30,LOW(81)
00059e 93ea      	ST   -Y,R30
                +
00059f 81aa     +LDD R26 , Y + 2
0005a0 81bb     +LDD R27 , Y + 2 + 1
0005a1 818c     +LDD R24 , Y + 2 + 2
0005a2 819d     +LDD R25 , Y + 2 + 3
                 	__GETD2S 2
0005a3 de91      	RCALL _send_cmd_G101
0005a4 30e0      	CPI  R30,0
0005a5 f459      	BRNE _0x20200AE
0005a6 81ed      	LDD  R30,Y+5
0005a7 81fe      	LDD  R31,Y+5+1
0005a8 93fa      	ST   -Y,R31
0005a9 93ea      	ST   -Y,R30
0005aa e0a0      	LDI  R26,LOW(512)
0005ab e0b2      	LDI  R27,HIGH(512)
0005ac dded      	RCALL _rx_datablock_G101
0005ad 30e0      	CPI  R30,0
0005ae f011      	BREQ _0x20200AF
0005af e0e0      	LDI  R30,LOW(0)
0005b0 83e8      	ST   Y,R30
                 _0x20200AF:
                 _0x20200AE:
0005b1 c023      	RJMP _0x20200B0
                 _0x20200AD:
0005b2 e5e2      	LDI  R30,LOW(82)
0005b3 93ea      	ST   -Y,R30
                +
0005b4 81aa     +LDD R26 , Y + 2
0005b5 81bb     +LDD R27 , Y + 2 + 1
0005b6 818c     +LDD R24 , Y + 2 + 2
0005b7 819d     +LDD R25 , Y + 2 + 3
                 	__GETD2S 2
0005b8 de7c      	RCALL _send_cmd_G101
0005b9 30e0      	CPI  R30,0
0005ba f4d1      	BRNE _0x20200B1
                 _0x20200B3:
0005bb 81ed      	LDD  R30,Y+5
0005bc 81fe      	LDD  R31,Y+5+1
0005bd 93fa      	ST   -Y,R31
0005be 93ea      	ST   -Y,R30
0005bf e0a0      	LDI  R26,LOW(512)
0005c0 e0b2      	LDI  R27,HIGH(512)
0005c1 ddd8      	RCALL _rx_datablock_G101
0005c2 30e0      	CPI  R30,0
0005c3 f051      	BREQ _0x20200B4
0005c4 81ed      	LDD  R30,Y+5
0005c5 81fe      	LDD  R31,Y+5+1
0005c6 50e0      	SUBI R30,LOW(-512)
0005c7 4ffe      	SBCI R31,HIGH(-512)
0005c8 83ed      	STD  Y+5,R30
0005c9 83fe      	STD  Y+5+1,R31
0005ca 81e8      	LD   R30,Y
0005cb 50e1      	SUBI R30,LOW(1)
0005cc 83e8      	ST   Y,R30
0005cd f769      	BRNE _0x20200B3
                 _0x20200B4:
0005ce e4ec      	LDI  R30,LOW(76)
0005cf 93ea      	ST   -Y,R30
                +
0005d0 e0a0     +LDI R26 , LOW ( 0x0 )
0005d1 e0b0     +LDI R27 , HIGH ( 0x0 )
0005d2 e080     +LDI R24 , BYTE3 ( 0x0 )
0005d3 e090     +LDI R25 , BYTE4 ( 0x0 )
                 	__GETD2N 0x0
0005d4 de60      	RCALL _send_cmd_G101
                 _0x20200B1:
                 _0x20200B0:
0005d5 ddbe      	RCALL _deselect_card_G101
0005d6 81e8      	LD   R30,Y
0005d7 30e0      	CPI  R30,0
0005d8 f011      	BREQ _0x20200B6
0005d9 e0e1      	LDI  R30,LOW(1)
0005da c001      	RJMP _0x20200B7
                 _0x20200B6:
0005db e0e0      	LDI  R30,LOW(0)
                 _0x20200B7:
0005dc c075      	RJMP _0x20E0019
                 ; .FEND
                 _disk_write:
                 ; .FSTART _disk_write
0005dd 93aa      	ST   -Y,R26
0005de 81ef      	LDD  R30,Y+7
0005df 30e0      	CPI  R30,0
0005e0 f419      	BRNE _0x20200BA
0005e1 81e8      	LD   R30,Y
0005e2 30e0      	CPI  R30,0
0005e3 f411      	BRNE _0x20200B9
                 _0x20200BA:
0005e4 e0e4      	LDI  R30,LOW(4)
0005e5 c06c      	RJMP _0x20E0019
                 _0x20200B9:
0005e6 91e0 072e 	LDS  R30,_status_G101
0005e8 70e1      	ANDI R30,LOW(0x1)
0005e9 f011      	BREQ _0x20200BC
0005ea e0e3      	LDI  R30,LOW(3)
0005eb c066      	RJMP _0x20E0019
                 _0x20200BC:
0005ec 91e0 072e 	LDS  R30,_status_G101
0005ee 70e4      	ANDI R30,LOW(0x4)
0005ef f011      	BREQ _0x20200BD
0005f0 e0e2      	LDI  R30,LOW(2)
0005f1 c060      	RJMP _0x20E0019
                 _0x20200BD:
0005f2 91e0 0731 	LDS  R30,_card_type_G101
0005f4 70e8      	ANDI R30,LOW(0x8)
0005f5 f471      	BRNE _0x20200BE
                +
0005f6 81e9     +LDD R30 , Y + 1
0005f7 81fa     +LDD R31 , Y + 1 + 1
0005f8 816b     +LDD R22 , Y + 1 + 2
0005f9 817c     +LDD R23 , Y + 1 + 3
                 	__GETD1S 1
                +
0005fa e0a0     +LDI R26 , LOW ( 0x200 )
0005fb e0b2     +LDI R27 , HIGH ( 0x200 )
0005fc e080     +LDI R24 , BYTE3 ( 0x200 )
0005fd e090     +LDI R25 , BYTE4 ( 0x200 )
                 	__GETD2N 0x200
0005fe 940e 1cf9 	CALL __MULD12U
                +
000600 83e9     +STD Y + 1 , R30
000601 83fa     +STD Y + 1 + 1 , R31
000602 836b     +STD Y + 1 + 2 , R22
000603 837c     +STD Y + 1 + 3 , R23
                 	__PUTD1S 1
                 _0x20200BE:
000604 81a8      	LD   R26,Y
000605 30a1      	CPI  R26,LOW(0x1)
000606 f4a1      	BRNE _0x20200BF
000607 e5e8      	LDI  R30,LOW(88)
000608 93ea      	ST   -Y,R30
                +
000609 81aa     +LDD R26 , Y + 2
00060a 81bb     +LDD R27 , Y + 2 + 1
00060b 818c     +LDD R24 , Y + 2 + 2
00060c 819d     +LDD R25 , Y + 2 + 3
                 	__GETD2S 2
00060d de27      	RCALL _send_cmd_G101
00060e 30e0      	CPI  R30,0
00060f f451      	BRNE _0x20200C0
000610 81ed      	LDD  R30,Y+5
000611 81fe      	LDD  R31,Y+5+1
000612 93fa      	ST   -Y,R31
000613 93ea      	ST   -Y,R30
000614 efae      	LDI  R26,LOW(254)
000615 dde2      	RCALL _tx_datablock_G101
000616 30e0      	CPI  R30,0
000617 f011      	BREQ _0x20200C1
000618 e0e0      	LDI  R30,LOW(0)
000619 83e8      	ST   Y,R30
                 _0x20200C1:
                 _0x20200C0:
00061a c030      	RJMP _0x20200C2
                 _0x20200BF:
00061b 91e0 0731 	LDS  R30,_card_type_G101
00061d 70e6      	ANDI R30,LOW(0x6)
00061e f039      	BREQ _0x20200C3
00061f ede7      	LDI  R30,LOW(215)
000620 93ea      	ST   -Y,R30
000621 81a9      	LDD  R26,Y+1
000622 27bb      	CLR  R27
000623 2788      	CLR  R24
000624 2799      	CLR  R25
000625 de0f      	RCALL _send_cmd_G101
                 _0x20200C3:
000626 e5e9      	LDI  R30,LOW(89)
000627 93ea      	ST   -Y,R30
                +
000628 81aa     +LDD R26 , Y + 2
000629 81bb     +LDD R27 , Y + 2 + 1
00062a 818c     +LDD R24 , Y + 2 + 2
00062b 819d     +LDD R25 , Y + 2 + 3
                 	__GETD2S 2
00062c de08      	RCALL _send_cmd_G101
00062d 30e0      	CPI  R30,0
00062e f4e1      	BRNE _0x20200C4
                 _0x20200C6:
00062f 81ed      	LDD  R30,Y+5
000630 81fe      	LDD  R31,Y+5+1
000631 93fa      	ST   -Y,R31
000632 93ea      	ST   -Y,R30
000633 efac      	LDI  R26,LOW(252)
000634 ddc3      	RCALL _tx_datablock_G101
000635 30e0      	CPI  R30,0
000636 f051      	BREQ _0x20200C7
000637 81ed      	LDD  R30,Y+5
000638 81fe      	LDD  R31,Y+5+1
000639 50e0      	SUBI R30,LOW(-512)
00063a 4ffe      	SBCI R31,HIGH(-512)
00063b 83ed      	STD  Y+5,R30
00063c 83fe      	STD  Y+5+1,R31
00063d 81e8      	LD   R30,Y
00063e 50e1      	SUBI R30,LOW(1)
00063f 83e8      	ST   Y,R30
000640 f771      	BRNE _0x20200C6
                 _0x20200C7:
000641 e0e0      	LDI  R30,LOW(0)
000642 e0f0      	LDI  R31,HIGH(0)
000643 93fa      	ST   -Y,R31
000644 93ea      	ST   -Y,R30
000645 efad      	LDI  R26,LOW(253)
000646 ddb1      	RCALL _tx_datablock_G101
000647 30e0      	CPI  R30,0
000648 f411      	BRNE _0x20200C9
000649 e0e1      	LDI  R30,LOW(1)
00064a 83e8      	ST   Y,R30
                 _0x20200C9:
                 _0x20200C4:
                 _0x20200C2:
00064b dd48      	RCALL _deselect_card_G101
00064c 81e8      	LD   R30,Y
00064d 30e0      	CPI  R30,0
00064e f011      	BREQ _0x20200CA
00064f e0e1      	LDI  R30,LOW(1)
000650 c001      	RJMP _0x20200CB
                 _0x20200CA:
000651 e0e0      	LDI  R30,LOW(0)
                 _0x20200CB:
                 _0x20E0019:
000652 9628      	ADIW R28,8
000653 9508      	RET
                 ; .FEND
                 _disk_ioctl:
                 ; .FSTART _disk_ioctl
000654 93ba      	ST   -Y,R27
000655 93aa      	ST   -Y,R26
000656 9760      	SBIW R28,16
000657 940e 1dc4 	CALL __SAVELOCR4
000659 89ef      	LDD  R30,Y+23
00065a 30e0      	CPI  R30,0
00065b f011      	BREQ _0x20200CD
00065c e0e4      	LDI  R30,LOW(4)
00065d c180      	RJMP _0x20E0018
                 _0x20200CD:
00065e 91e0 072e 	LDS  R30,_status_G101
000660 70e1      	ANDI R30,LOW(0x1)
000661 f011      	BREQ _0x20200CE
000662 e0e3      	LDI  R30,LOW(3)
000663 c17a      	RJMP _0x20E0018
                 _0x20200CE:
000664 e011      	LDI  R17,LOW(1)
000665 89ee      	LDD  R30,Y+22
000666 30e0      	CPI  R30,0
000667 f431      	BRNE _0x20200D2
000668 98c4      	CBI  0x18,4
000669 dd13      	RCALL _wait_ready_G101
00066a 3fef      	CPI  R30,LOW(0xFF)
00066b f409      	BRNE _0x20200D3
00066c e010      	LDI  R17,LOW(0)
                 _0x20200D3:
00066d c16e      	RJMP _0x20200D1
                 _0x20200D2:
00066e 30e1      	CPI  R30,LOW(0x1)
00066f f009      	BREQ PC+2
000670 c05b      	RJMP _0x20200D4
000671 e4e9      	LDI  R30,LOW(73)
000672 93ea      	ST   -Y,R30
                +
000673 e0a0     +LDI R26 , LOW ( 0x0 )
000674 e0b0     +LDI R27 , HIGH ( 0x0 )
000675 e080     +LDI R24 , BYTE3 ( 0x0 )
000676 e090     +LDI R25 , BYTE4 ( 0x0 )
                 	__GETD2N 0x0
000677 ddbd      	RCALL _send_cmd_G101
000678 30e0      	CPI  R30,0
000679 f449      	BRNE _0x20200D6
00067a 01fe      	MOVW R30,R28
00067b 9634      	ADIW R30,4
00067c 93fa      	ST   -Y,R31
00067d 93ea      	ST   -Y,R30
00067e e1a0      	LDI  R26,LOW(16)
00067f e0b0      	LDI  R27,0
000680 dd19      	RCALL _rx_datablock_G101
000681 30e0      	CPI  R30,0
000682 f409      	BRNE _0x20200D7
                 _0x20200D6:
000683 c047      	RJMP _0x20200D5
                 _0x20200D7:
000684 81ec      	LDD  R30,Y+4
000685 95e2      	SWAP R30
000686 70ef      	ANDI R30,0xF
000687 95e6      	LSR  R30
000688 95e6      	LSR  R30
000689 30e1      	CPI  R30,LOW(0x1)
00068a f469      	BRNE _0x20200D8
00068b e0e0      	LDI  R30,0
00068c 85fc      	LDD  R31,Y+12
00068d 85ad      	LDD  R26,Y+13
00068e e0b0      	LDI  R27,0
00068f 0fea      	ADD  R30,R26
000690 1ffb      	ADC  R31,R27
000691 9631      	ADIW R30,1
000692 019f      	MOVW R18,R30
000693 01d9      	MOVW R26,R18
000694 2788      	CLR  R24
000695 2799      	CLR  R25
000696 e0ea      	LDI  R30,LOW(10)
000697 c02c      	RJMP _0x2020104
                 _0x20200D8:
000698 85e9      	LDD  R30,Y+9
000699 70ef      	ANDI R30,LOW(0xF)
00069a 2fae      	MOV  R26,R30
00069b 85ee      	LDD  R30,Y+14
00069c 78e0      	ANDI R30,LOW(0x80)
00069d 1fee      	ROL  R30
00069e e0e0      	LDI  R30,0
00069f 1fee      	ROL  R30
0006a0 0fae      	ADD  R26,R30
0006a1 85ed      	LDD  R30,Y+13
0006a2 70e3      	ANDI R30,LOW(0x3)
0006a3 0fee      	LSL  R30
0006a4 0fea      	ADD  R30,R26
0006a5 5fee      	SUBI R30,-LOW(2)
0006a6 2f0e      	MOV  R16,R30
0006a7 85ec      	LDD  R30,Y+12
0006a8 95e2      	SWAP R30
0006a9 70ef      	ANDI R30,0xF
0006aa 95e6      	LSR  R30
0006ab 95e6      	LSR  R30
0006ac 2fae      	MOV  R26,R30
0006ad 85eb      	LDD  R30,Y+11
0006ae e0f0      	LDI  R31,0
0006af 940e 1cc5 	CALL __LSLW2
0006b1 e0b0      	LDI  R27,0
0006b2 0fae      	ADD  R26,R30
0006b3 1fbf      	ADC  R27,R31
0006b4 85ea      	LDD  R30,Y+10
0006b5 70e3      	ANDI R30,LOW(0x3)
0006b6 e0f0      	LDI  R31,0
0006b7 940e 1cc5 	CALL __LSLW2
0006b9 2ffe      	MOV  R31,R30
0006ba e0e0      	LDI  R30,0
0006bb 0fea      	ADD  R30,R26
0006bc 1ffb      	ADC  R31,R27
0006bd 9631      	ADIW R30,1
0006be 019f      	MOVW R18,R30
0006bf 01d9      	MOVW R26,R18
0006c0 2788      	CLR  R24
0006c1 2799      	CLR  R25
0006c2 2fe0      	MOV  R30,R16
0006c3 50e9      	SUBI R30,LOW(9)
                 _0x2020104:
0006c4 940e 1ca9 	CALL __LSLD12
0006c6 89ac      	LDD  R26,Y+20
0006c7 89bd      	LDD  R27,Y+20+1
0006c8 940e 1d79 	CALL __PUTDP1
0006ca e010      	LDI  R17,LOW(0)
                 _0x20200D5:
0006cb c110      	RJMP _0x20200D1
                 _0x20200D4:
0006cc 30e2      	CPI  R30,LOW(0x2)
0006cd f441      	BRNE _0x20200DA
0006ce 89ac      	LDD  R26,Y+20
0006cf 89bd      	LDD  R27,Y+20+1
0006d0 e0e0      	LDI  R30,LOW(512)
0006d1 e0f2      	LDI  R31,HIGH(512)
0006d2 93ed      	ST   X+,R30
0006d3 93fc      	ST   X,R31
0006d4 e010      	LDI  R17,LOW(0)
0006d5 c106      	RJMP _0x20200D1
                 _0x20200DA:
0006d6 30e3      	CPI  R30,LOW(0x3)
0006d7 f009      	BREQ PC+2
0006d8 c0a9      	RJMP _0x20200DB
0006d9 91e0 0731 	LDS  R30,_card_type_G101
0006db 70e4      	ANDI R30,LOW(0x4)
0006dc f171      	BREQ _0x20200DC
0006dd eced      	LDI  R30,LOW(205)
0006de 93ea      	ST   -Y,R30
                +
0006df e0a0     +LDI R26 , LOW ( 0x0 )
0006e0 e0b0     +LDI R27 , HIGH ( 0x0 )
0006e1 e080     +LDI R24 , BYTE3 ( 0x0 )
0006e2 e090     +LDI R25 , BYTE4 ( 0x0 )
                 	__GETD2N 0x0
0006e3 dd51      	RCALL _send_cmd_G101
0006e4 30e0      	CPI  R30,0
0006e5 f521      	BRNE _0x20200DD
0006e6 efef      	LDI  R30,LOW(255)
0006e7 b9ef      	OUT  0xF,R30
                 _0x20200DE:
0006e8 9b77      	SBIS 0xE,7
0006e9 cffe      	RJMP _0x20200DE
0006ea 01fe      	MOVW R30,R28
0006eb 9634      	ADIW R30,4
0006ec 93fa      	ST   -Y,R31
0006ed 93ea      	ST   -Y,R30
0006ee e1a0      	LDI  R26,LOW(16)
0006ef e0b0      	LDI  R27,0
0006f0 dca9      	RCALL _rx_datablock_G101
0006f1 30e0      	CPI  R30,0
0006f2 f0b9      	BREQ _0x20200E1
0006f3 e300      	LDI  R16,LOW(48)
                 _0x20200E3:
0006f4 3000      	CPI  R16,0
0006f5 f031      	BREQ _0x20200E4
0006f6 efef      	LDI  R30,LOW(255)
0006f7 b9ef      	OUT  0xF,R30
                 _0x20200E5:
0006f8 9b77      	SBIS 0xE,7
0006f9 cffe      	RJMP _0x20200E5
0006fa 5001      	SUBI R16,1
0006fb cff8      	RJMP _0x20200E3
                 _0x20200E4:
0006fc 85ee      	LDD  R30,Y+14
0006fd 95e2      	SWAP R30
0006fe 70ef      	ANDI R30,0xF
                +
0006ff e1a0     +LDI R26 , LOW ( 0x10 )
000700 e0b0     +LDI R27 , HIGH ( 0x10 )
000701 e080     +LDI R24 , BYTE3 ( 0x10 )
000702 e090     +LDI R25 , BYTE4 ( 0x10 )
                 	__GETD2N 0x10
000703 940e 1ca9 	CALL __LSLD12
000705 89ac      	LDD  R26,Y+20
000706 89bd      	LDD  R27,Y+20+1
000707 940e 1d79 	CALL __PUTDP1
000709 e010      	LDI  R17,LOW(0)
                 _0x20200E1:
                 _0x20200DD:
00070a c076      	RJMP _0x20200E8
                 _0x20200DC:
00070b e4e9      	LDI  R30,LOW(73)
00070c 93ea      	ST   -Y,R30
                +
00070d e0a0     +LDI R26 , LOW ( 0x0 )
00070e e0b0     +LDI R27 , HIGH ( 0x0 )
00070f e080     +LDI R24 , BYTE3 ( 0x0 )
000710 e090     +LDI R25 , BYTE4 ( 0x0 )
                 	__GETD2N 0x0
000711 dd23      	RCALL _send_cmd_G101
000712 30e0      	CPI  R30,0
000713 f009      	BREQ PC+2
000714 c06c      	RJMP _0x20200E9
000715 01fe      	MOVW R30,R28
000716 9634      	ADIW R30,4
000717 93fa      	ST   -Y,R31
000718 93ea      	ST   -Y,R30
000719 e1a0      	LDI  R26,LOW(16)
00071a e0b0      	LDI  R27,0
00071b dc7e      	RCALL _rx_datablock_G101
00071c 30e0      	CPI  R30,0
00071d f409      	BRNE PC+2
00071e c062      	RJMP _0x20200EA
00071f 91e0 0731 	LDS  R30,_card_type_G101
000721 70e2      	ANDI R30,LOW(0x2)
000722 f151      	BREQ _0x20200EB
000723 85ee      	LDD  R30,Y+14
000724 73ef      	ANDI R30,LOW(0x3F)
000725 27ff      	CLR  R31
000726 2766      	CLR  R22
000727 2777      	CLR  R23
000728 940e 1cd3 	CALL __LSLD1
00072a 937f      	PUSH R23
00072b 936f      	PUSH R22
00072c 93ff      	PUSH R31
00072d 93ef      	PUSH R30
00072e 85ef      	LDD  R30,Y+15
00072f 78e0      	ANDI R30,LOW(0x80)
000730 27ff      	CLR  R31
000731 2766      	CLR  R22
000732 2777      	CLR  R23
000733 01df      	MOVW R26,R30
000734 01cb      	MOVW R24,R22
000735 e0e7      	LDI  R30,LOW(7)
000736 940e 1cb5 	CALL __LSRD12
000738 91af      	POP  R26
000739 91bf      	POP  R27
00073a 918f      	POP  R24
00073b 919f      	POP  R25
00073c 940e 1c87 	CALL __ADDD12
                +
00073e 5fef     +SUBI R30 , LOW ( - 1 )
00073f 4fff     +SBCI R31 , HIGH ( - 1 )
000740 4f6f     +SBCI R22 , BYTE3 ( - 1 )
000741 4f7f     +SBCI R23 , BYTE4 ( - 1 )
                 	__ADDD1N 1
000742 01df      	MOVW R26,R30
000743 01cb      	MOVW R24,R22
000744 89e9      	LDD  R30,Y+17
000745 95e2      	SWAP R30
000746 70ef      	ANDI R30,0xF
000747 95e6      	LSR  R30
000748 95e6      	LSR  R30
000749 50e1      	SUBI R30,LOW(1)
00074a 940e 1ca9 	CALL __LSLD12
00074c c02f      	RJMP _0x2020105
                 _0x20200EB:
00074d 85ee      	LDD  R30,Y+14
00074e 77ec      	ANDI R30,LOW(0x7C)
00074f 95e6      	LSR  R30
000750 95e6      	LSR  R30
000751 27ff      	CLR  R31
000752 2766      	CLR  R22
000753 2777      	CLR  R23
                +
000754 5fef     +SUBI R30 , LOW ( - 1 )
000755 4fff     +SBCI R31 , HIGH ( - 1 )
000756 4f6f     +SBCI R22 , BYTE3 ( - 1 )
000757 4f7f     +SBCI R23 , BYTE4 ( - 1 )
                 	__ADDD1N 1
000758 937f      	PUSH R23
000759 936f      	PUSH R22
00075a 93ff      	PUSH R31
00075b 93ef      	PUSH R30
00075c 85ef      	LDD  R30,Y+15
00075d 70e3      	ANDI R30,LOW(0x3)
00075e 27ff      	CLR  R31
00075f 2766      	CLR  R22
000760 2777      	CLR  R23
000761 01df      	MOVW R26,R30
000762 01cb      	MOVW R24,R22
000763 e0e3      	LDI  R30,LOW(3)
000764 940e 1ca9 	CALL __LSLD12
000766 01df      	MOVW R26,R30
000767 01cb      	MOVW R24,R22
000768 85ef      	LDD  R30,Y+15
000769 7ee0      	ANDI R30,LOW(0xE0)
00076a 95e2      	SWAP R30
00076b 70ef      	ANDI R30,0xF
00076c 95e6      	LSR  R30
00076d 27ff      	CLR  R31
00076e 2766      	CLR  R22
00076f 2777      	CLR  R23
000770 940e 1c87 	CALL __ADDD12
                +
000772 5fef     +SUBI R30 , LOW ( - 1 )
000773 4fff     +SBCI R31 , HIGH ( - 1 )
000774 4f6f     +SBCI R22 , BYTE3 ( - 1 )
000775 4f7f     +SBCI R23 , BYTE4 ( - 1 )
                 	__ADDD1N 1
000776 91af      	POP  R26
000777 91bf      	POP  R27
000778 918f      	POP  R24
000779 919f      	POP  R25
00077a 940e 1cf9 	CALL __MULD12U
                 _0x2020105:
00077c 89ac      	LDD  R26,Y+20
00077d 89bd      	LDD  R27,Y+20+1
00077e 940e 1d79 	CALL __PUTDP1
000780 e010      	LDI  R17,LOW(0)
                 _0x20200EA:
                 _0x20200E9:
                 _0x20200E8:
000781 c05a      	RJMP _0x20200D1
                 _0x20200DB:
000782 30ea      	CPI  R30,LOW(0xA)
000783 f439      	BRNE _0x20200ED
000784 91e0 0731 	LDS  R30,_card_type_G101
000786 89ac      	LDD  R26,Y+20
000787 89bd      	LDD  R27,Y+20+1
000788 93ec      	ST   X,R30
000789 e010      	LDI  R17,LOW(0)
00078a c051      	RJMP _0x20200D1
                 _0x20200ED:
00078b 30eb      	CPI  R30,LOW(0xB)
00078c f411      	BRNE _0x20200EE
00078d e409      	LDI  R16,LOW(73)
00078e c003      	RJMP _0x20200EF
                 _0x20200EE:
00078f 30ec      	CPI  R30,LOW(0xC)
000790 f501      	BRNE _0x20200F1
000791 e40a      	LDI  R16,LOW(74)
                 _0x20200EF:
000792 930a      	ST   -Y,R16
                +
000793 e0a0     +LDI R26 , LOW ( 0x0 )
000794 e0b0     +LDI R27 , HIGH ( 0x0 )
000795 e080     +LDI R24 , BYTE3 ( 0x0 )
000796 e090     +LDI R25 , BYTE4 ( 0x0 )
                 	__GETD2N 0x0
000797 dc9d      	RCALL _send_cmd_G101
000798 30e0      	CPI  R30,0
000799 f4b1      	BRNE _0x20200F2
00079a 89ec      	LDD  R30,Y+20
00079b 89fd      	LDD  R31,Y+20+1
00079c 93fa      	ST   -Y,R31
00079d 93ea      	ST   -Y,R30
00079e e1a0      	LDI  R26,LOW(16)
00079f e0b0      	LDI  R27,0
0007a0 dbf9      	RCALL _rx_datablock_G101
0007a1 30e0      	CPI  R30,0
0007a2 f069      	BREQ _0x20200F3
0007a3 89ec      	LDD  R30,Y+20
0007a4 89fd      	LDD  R31,Y+20+1
0007a5 93fa      	ST   -Y,R31
0007a6 93ea      	ST   -Y,R30
0007a7 e0af      	LDI  R26,LOW(15)
0007a8 dbb7      	RCALL _crc7_G101
0007a9 2fae      	MOV  R26,R30
0007aa 89ec      	LDD  R30,Y+20
0007ab 89fd      	LDD  R31,Y+20+1
0007ac 85e7      	LDD  R30,Z+15
0007ad 17ea      	CP   R30,R26
0007ae f409      	BRNE _0x20200F4
0007af e010      	LDI  R17,LOW(0)
                 _0x20200F4:
                 _0x20200F3:
                 _0x20200F2:
0007b0 c02b      	RJMP _0x20200D1
                 _0x20200F1:
0007b1 30ed      	CPI  R30,LOW(0xD)
0007b2 f471      	BRNE _0x20200F5
0007b3 e7ea      	LDI  R30,LOW(122)
0007b4 93ea      	ST   -Y,R30
                +
0007b5 e0a0     +LDI R26 , LOW ( 0x0 )
0007b6 e0b0     +LDI R27 , HIGH ( 0x0 )
0007b7 e080     +LDI R24 , BYTE3 ( 0x0 )
0007b8 e090     +LDI R25 , BYTE4 ( 0x0 )
                 	__GETD2N 0x0
0007b9 dc7b      	RCALL _send_cmd_G101
0007ba 30e0      	CPI  R30,0
0007bb f421      	BRNE _0x20200F6
0007bc 89ac      	LDD  R26,Y+20
0007bd 89bd      	LDD  R27,Y+20+1
0007be dcd1      	RCALL _rx_spi4_G101
0007bf e010      	LDI  R17,LOW(0)
                 _0x20200F6:
0007c0 c01b      	RJMP _0x20200D1
                 _0x20200F5:
0007c1 30ee      	CPI  R30,LOW(0xE)
0007c2 f4c1      	BRNE _0x20200FD
0007c3 eced      	LDI  R30,LOW(205)
0007c4 93ea      	ST   -Y,R30
                +
0007c5 e0a0     +LDI R26 , LOW ( 0x0 )
0007c6 e0b0     +LDI R27 , HIGH ( 0x0 )
0007c7 e080     +LDI R24 , BYTE3 ( 0x0 )
0007c8 e090     +LDI R25 , BYTE4 ( 0x0 )
                 	__GETD2N 0x0
0007c9 dc6b      	RCALL _send_cmd_G101
0007ca 30e0      	CPI  R30,0
0007cb f471      	BRNE _0x20200F8
0007cc efef      	LDI  R30,LOW(255)
0007cd b9ef      	OUT  0xF,R30
                 _0x20200F9:
0007ce 9b77      	SBIS 0xE,7
0007cf cffe      	RJMP _0x20200F9
0007d0 89ec      	LDD  R30,Y+20
0007d1 89fd      	LDD  R31,Y+20+1
0007d2 93fa      	ST   -Y,R31
0007d3 93ea      	ST   -Y,R30
0007d4 e4a0      	LDI  R26,LOW(64)
0007d5 e0b0      	LDI  R27,0
0007d6 dbc3      	RCALL _rx_datablock_G101
0007d7 30e0      	CPI  R30,0
0007d8 f009      	BREQ _0x20200FC
0007d9 e010      	LDI  R17,LOW(0)
                 _0x20200FC:
                 _0x20200F8:
0007da c001      	RJMP _0x20200D1
                 _0x20200FD:
0007db e014      	LDI  R17,LOW(4)
                 _0x20200D1:
0007dc dbb7      	RCALL _deselect_card_G101
0007dd 2fe1      	MOV  R30,R17
                 _0x20E0018:
0007de 940e 1dcb 	CALL __LOADLOCR4
0007e0 9668      	ADIW R28,24
0007e1 9508      	RET
                 ; .FEND
                 _disk_timerproc:
                 ; .FSTART _disk_timerproc
0007e2 931a      	ST   -Y,R17
0007e3 9110 072f 	LDS  R17,_timer1_G101
0007e5 3010      	CPI  R17,0
0007e6 f019      	BREQ _0x20200FE
0007e7 5011      	SUBI R17,LOW(1)
0007e8 9310 072f 	STS  _timer1_G101,R17
                 _0x20200FE:
0007ea 9110 0730 	LDS  R17,_timer2_G101
0007ec 3010      	CPI  R17,0
0007ed f019      	BREQ _0x20200FF
0007ee 5011      	SUBI R17,LOW(1)
0007ef 9310 0730 	STS  _timer2_G101,R17
                 _0x20200FF:
0007f1 91e0 072e 	LDS  R30,_status_G101
0007f3 7feb      	ANDI R30,0xFB
0007f4 93e0 072e 	STS  _status_G101,R30
                 _0x20E0017:
0007f6 9119      	LD   R17,Y+
0007f7 9508      	RET
                 ; .FEND
                 
                 	.CSEG
                 _get_fattime:
                 ; .FSTART _get_fattime
0007f8 9727      	SBIW R28,7
0007f9 91a0 027a 	LDS  R26,_prtc_get_time
0007fb 91b0 027b 	LDS  R27,_prtc_get_time+1
0007fd 9710      	SBIW R26,0
0007fe f031      	BREQ _0x2040004
0007ff 91a0 027c 	LDS  R26,_prtc_get_date
000801 91b0 027d 	LDS  R27,_prtc_get_date+1
000803 9710      	SBIW R26,0
000804 f429      	BRNE _0x2040003
                 _0x2040004:
                +
000805 e0e0     +LDI R30 , LOW ( 0x3A210000 )
000806 e0f0     +LDI R31 , HIGH ( 0x3A210000 )
000807 e261     +LDI R22 , BYTE3 ( 0x3A210000 )
000808 e37a     +LDI R23 , BYTE4 ( 0x3A210000 )
                 	__GETD1N 0x3A210000
000809 c06d      	RJMP _0x20E0016
                 _0x2040003:
00080a 01fe      	MOVW R30,R28
00080b 9636      	ADIW R30,6
00080c 93fa      	ST   -Y,R31
00080d 93ea      	ST   -Y,R30
00080e 01fe      	MOVW R30,R28
00080f 9637      	ADIW R30,7
000810 93fa      	ST   -Y,R31
000811 93ea      	ST   -Y,R30
000812 01de      	MOVW R26,R28
000813 9618      	ADIW R26,8
                +
000814 91e0 027a+LDS R30 , _prtc_get_time + ( 0 )
000816 91f0 027b+LDS R31 , _prtc_get_time + ( 0 ) + 1
000818 9509     +ICALL
                 	__CALL1MN _prtc_get_time,0
000819 01fe      	MOVW R30,R28
00081a 9633      	ADIW R30,3
00081b 93fa      	ST   -Y,R31
00081c 93ea      	ST   -Y,R30
00081d 01fe      	MOVW R30,R28
00081e 9634      	ADIW R30,4
00081f 93fa      	ST   -Y,R31
000820 93ea      	ST   -Y,R30
000821 01de      	MOVW R26,R28
000822 9614      	ADIW R26,4
                +
000823 91e0 027c+LDS R30 , _prtc_get_date + ( 0 )
000825 91f0 027d+LDS R31 , _prtc_get_date + ( 0 ) + 1
000827 9509     +ICALL
                 	__CALL1MN _prtc_get_date,0
000828 81e8      	LD   R30,Y
000829 81f9      	LDD  R31,Y+1
00082a 5bec      	SUBI R30,LOW(1980)
00082b 40f7      	SBCI R31,HIGH(1980)
00082c 2766      	CLR  R22
00082d 2777      	CLR  R23
00082e 01df      	MOVW R26,R30
00082f 01cb      	MOVW R24,R22
000830 e1e9      	LDI  R30,LOW(25)
000831 940e 1ca9 	CALL __LSLD12
000833 937f      	PUSH R23
000834 936f      	PUSH R22
000835 93ff      	PUSH R31
000836 93ef      	PUSH R30
000837 81ea      	LDD  R30,Y+2
000838 940e 1881 	CALL SUBOPT_0xB
00083a e1e5      	LDI  R30,LOW(21)
00083b 940e 1ca9 	CALL __LSLD12
00083d 91af      	POP  R26
00083e 91bf      	POP  R27
00083f 918f      	POP  R24
000840 919f      	POP  R25
000841 940e 1ca0 	CALL __ORD12
000843 01df      	MOVW R26,R30
000844 01cb      	MOVW R24,R22
000845 81eb      	LDD  R30,Y+3
000846 e0f0      	LDI  R31,0
000847 940e 1ce2 	CALL __CWD1
000849 940e 1cdd 	CALL __LSLD16
00084b 940e 1ca0 	CALL __ORD12
00084d 937f      	PUSH R23
00084e 936f      	PUSH R22
00084f 93ff      	PUSH R31
000850 93ef      	PUSH R30
000851 81ee      	LDD  R30,Y+6
000852 940e 1881 	CALL SUBOPT_0xB
000854 e0eb      	LDI  R30,LOW(11)
000855 940e 1ca9 	CALL __LSLD12
000857 91af      	POP  R26
000858 91bf      	POP  R27
000859 918f      	POP  R24
00085a 919f      	POP  R25
00085b 940e 1ca0 	CALL __ORD12
00085d 937f      	PUSH R23
00085e 936f      	PUSH R22
00085f 93ff      	PUSH R31
000860 93ef      	PUSH R30
000861 81ed      	LDD  R30,Y+5
000862 940e 1881 	CALL SUBOPT_0xB
000864 e0e5      	LDI  R30,LOW(5)
000865 940e 1ca9 	CALL __LSLD12
000867 91af      	POP  R26
000868 91bf      	POP  R27
000869 918f      	POP  R24
00086a 919f      	POP  R25
00086b 940e 1ca0 	CALL __ORD12
00086d 01df      	MOVW R26,R30
00086e 01cb      	MOVW R24,R22
00086f 81ec      	LDD  R30,Y+4
000870 e0f0      	LDI  R31,0
000871 95f5      	ASR  R31
000872 95e7      	ROR  R30
000873 940e 1ce2 	CALL __CWD1
000875 940e 1ca0 	CALL __ORD12
                 _0x20E0016:
000877 9627      	ADIW R28,7
000878 9508      	RET
                 ; .FEND
                 _chk_chrf_G102:
                 ; .FSTART _chk_chrf_G102
000879 93aa      	ST   -Y,R26
00087a 931a      	ST   -Y,R17
                 _0x2040006:
00087b 81ea      	LDD  R30,Y+2
00087c 81fb      	LDD  R31,Y+2+1
00087d 91e4      	LPM  R30,Z
00087e 2f1e      	MOV  R17,R30
00087f 30e0      	CPI  R30,0
000880 f019      	BREQ _0x2040009
000881 81e9      	LDD  R30,Y+1
000882 17e1      	CP   R30,R17
000883 f409      	BRNE _0x204000A
                 _0x2040009:
000884 c006      	RJMP _0x2040008
                 _0x204000A:
000885 81ea      	LDD  R30,Y+2
000886 81fb      	LDD  R31,Y+2+1
000887 9631      	ADIW R30,1
000888 83ea      	STD  Y+2,R30
000889 83fb      	STD  Y+2+1,R31
00088a cff0      	RJMP _0x2040006
                 _0x2040008:
00088b 2fe1      	MOV  R30,R17
00088c e0f0      	LDI  R31,0
00088d 8118      	LDD  R17,Y+0
                 _0x20E0015:
00088e 9624      	ADIW R28,4
00088f 9508      	RET
                 ; .FEND
                 _move_window_G102:
                 ; .FSTART _move_window_G102
000890 940e 1d9c 	CALL __PUTPARD2
000892 9724      	SBIW R28,4
000893 931a      	ST   -Y,R17
000894 85a9      	LDD  R26,Y+9
000895 85ba      	LDD  R27,Y+9+1
000896 969e      	ADIW R26,46
000897 940e 1887 	CALL SUBOPT_0xC
000899 940e 188e 	CALL SUBOPT_0xD
00089b 940e 1893 	CALL SUBOPT_0xE
00089d 940e 1db8 	CALL __CPD12
00089f f409      	BRNE PC+2
0008a0 c050      	RJMP _0x204000B
0008a1 85e9      	LDD  R30,Y+9
0008a2 85fa      	LDD  R31,Y+9+1
0008a3 81e4      	LDD  R30,Z+4
0008a4 30e0      	CPI  R30,0
0008a5 f189      	BREQ _0x204000C
0008a6 940e 1898 	CALL SUBOPT_0xF
0008a8 30e0      	CPI  R30,0
0008a9 f5e1      	BRNE _0x20E0014
0008aa 85a9      	LDD  R26,Y+9
0008ab 85ba      	LDD  R27,Y+9+1
0008ac 9614      	ADIW R26,4
0008ad e0e0      	LDI  R30,LOW(0)
0008ae 93ec      	ST   X,R30
0008af 85e9      	LDD  R30,Y+9
0008b0 85fa      	LDD  R31,Y+9+1
0008b1 940e 18aa 	CALL SUBOPT_0x10
0008b3 010d      	MOVW R0,R26
0008b4 85a9      	LDD  R26,Y+9
0008b5 85ba      	LDD  R27,Y+9+1
0008b6 965a      	ADIW R26,26
0008b7 940e 1d6e 	CALL __GETD1P
0008b9 01d0      	MOVW R26,R0
0008ba 940e 1c87 	CALL __ADDD12
0008bc 940e 1893 	CALL SUBOPT_0xE
0008be 940e 1dbd 	CALL __CPD21
0008c0 f4b0      	BRSH _0x204000E
0008c1 85e9      	LDD  R30,Y+9
0008c2 85fa      	LDD  R31,Y+9+1
0008c3 8113      	LDD  R17,Z+3
                 _0x2040010:
0008c4 3012      	CPI  R17,2
0008c5 f088      	BRLO _0x2040011
0008c6 85a9      	LDD  R26,Y+9
0008c7 85ba      	LDD  R27,Y+9+1
0008c8 965a      	ADIW R26,26
0008c9 940e 1d6e 	CALL __GETD1P
0008cb 940e 1893 	CALL SUBOPT_0xE
0008cd 940e 1c87 	CALL __ADDD12
                +
0008cf 83e9     +STD Y + 1 , R30
0008d0 83fa     +STD Y + 1 + 1 , R31
0008d1 836b     +STD Y + 1 + 2 , R22
0008d2 837c     +STD Y + 1 + 3 , R23
                 	__PUTD1S 1
0008d3 940e 1898 	CALL SUBOPT_0xF
0008d5 5011      	SUBI R17,1
0008d6 cfed      	RJMP _0x2040010
                 _0x2040011:
                 _0x204000E:
                 _0x204000C:
0008d7 940e 188e 	CALL SUBOPT_0xD
0008d9 940e 1dae 	CALL __CPD10
0008db f0a9      	BREQ _0x2040012
0008dc 85e9      	LDD  R30,Y+9
0008dd 85fa      	LDD  R31,Y+9+1
0008de 81a1      	LDD  R26,Z+1
0008df 93aa      	ST   -Y,R26
0008e0 85ea      	LDD  R30,Y+10
0008e1 85fb      	LDD  R31,Y+10+1
0008e2 96f2      	ADIW R30,50
0008e3 940e 18af 	CALL SUBOPT_0x11
0008e5 f021      	BREQ _0x2040013
                 _0x20E0014:
0008e6 e0e1      	LDI  R30,LOW(1)
0008e7 8118      	LDD  R17,Y+0
0008e8 962b      	ADIW R28,11
0008e9 9508      	RET
                 _0x2040013:
0008ea 940e 188e 	CALL SUBOPT_0xD
                +
0008ec 85a9     +LDD R26 , Y + 9
0008ed 85ba     +LDD R27 , Y + 9 + 1
0008ee 969e     +ADIW R26 , 46
0008ef 940e 1d79+CALL __PUTDP1
                 	__PUTD1SNS 9,46
                 _0x2040012:
                 _0x204000B:
0008f1 e0e0      	LDI  R30,LOW(0)
0008f2 8118      	LDD  R17,Y+0
0008f3 c459      	RJMP _0x20E000F
                 ; .FEND
                 _sync_G102:
                 ; .FSTART _sync_G102
0008f4 93ba      	ST   -Y,R27
0008f5 93aa      	ST   -Y,R26
0008f6 931a      	ST   -Y,R17
0008f7 81e9      	LDD  R30,Y+1
0008f8 81fa      	LDD  R31,Y+1+1
0008f9 940e 18bc 	CALL SUBOPT_0x12
0008fb 2f1e      	MOV  R17,R30
0008fc 3010      	CPI  R17,0
0008fd f009      	BREQ PC+2
0008fe c05b      	RJMP _0x2040014
0008ff 81a9      	LDD  R26,Y+1
000900 81ba      	LDD  R27,Y+1+1
000901 91ac      	LD   R26,X
000902 30a3      	CPI  R26,LOW(0x3)
000903 f429      	BRNE _0x2040016
000904 81e9      	LDD  R30,Y+1
000905 81fa      	LDD  R31,Y+1+1
000906 81e5      	LDD  R30,Z+5
000907 30e0      	CPI  R30,0
000908 f409      	BRNE _0x2040017
                 _0x2040016:
000909 c044      	RJMP _0x2040015
                 _0x2040017:
00090a 81a9      	LDD  R26,Y+1
00090b 81ba      	LDD  R27,Y+1+1
00090c 940e 18c4 	CALL SUBOPT_0x13
00090e 81e9      	LDD  R30,Y+1
00090f 81fa      	LDD  R31,Y+1+1
000910 940e 18cc 	CALL SUBOPT_0x14
000912 81e9      	LDD  R30,Y+1
000913 81fa      	LDD  R31,Y+1+1
000914 96f2      	ADIW R30,50
000915 50e2      	SUBI R30,LOW(-510)
000916 4ffe      	SBCI R31,HIGH(-510)
000917 e5a5      	LDI  R26,LOW(43605)
000918 eaba      	LDI  R27,HIGH(43605)
000919 83a0      	STD  Z+0,R26
00091a 83b1      	STD  Z+1,R27
00091b 81e9      	LDD  R30,Y+1
00091c 81fa      	LDD  R31,Y+1+1
00091d 96f2      	ADIW R30,50
                +
00091e e5a2     +LDI R26 , LOW ( 0x41615252 )
00091f e5b2     +LDI R27 , HIGH ( 0x41615252 )
000920 e681     +LDI R24 , BYTE3 ( 0x41615252 )
000921 e491     +LDI R25 , BYTE4 ( 0x41615252 )
                 	__GETD2N 0x41615252
000922 940e 18d5 	CALL SUBOPT_0x15
000924 51ec      	SUBI R30,LOW(-484)
000925 4ffe      	SBCI R31,HIGH(-484)
                +
000926 e7a2     +LDI R26 , LOW ( 0x61417272 )
000927 e7b2     +LDI R27 , HIGH ( 0x61417272 )
000928 e481     +LDI R24 , BYTE3 ( 0x61417272 )
000929 e691     +LDI R25 , BYTE4 ( 0x61417272 )
                 	__GETD2N 0x61417272
00092a 940e 18d5 	CALL SUBOPT_0x15
00092c 51e8      	SUBI R30,LOW(-488)
00092d 4ffe      	SBCI R31,HIGH(-488)
00092e 010f      	MOVW R0,R30
00092f 81a9      	LDD  R26,Y+1
000930 81ba      	LDD  R27,Y+1+1
000931 961e      	ADIW R26,14
000932 940e 18db 	CALL SUBOPT_0x16
000934 96f2      	ADIW R30,50
000935 51e4      	SUBI R30,LOW(-492)
000936 4ffe      	SBCI R31,HIGH(-492)
000937 010f      	MOVW R0,R30
000938 81a9      	LDD  R26,Y+1
000939 81ba      	LDD  R27,Y+1+1
00093a 961a      	ADIW R26,10
00093b 940e 18db 	CALL SUBOPT_0x16
00093d 81a1      	LDD  R26,Z+1
00093e 93aa      	ST   -Y,R26
00093f 81ea      	LDD  R30,Y+2
000940 81fb      	LDD  R31,Y+2+1
000941 96f2      	ADIW R30,50
000942 93fa      	ST   -Y,R31
000943 93ea      	ST   -Y,R30
000944 81ec      	LDD  R30,Y+4
000945 81fd      	LDD  R31,Y+4+1
000946 940e 18e3 	CALL SUBOPT_0x17
000948 dc94      	RCALL _disk_write
000949 81a9      	LDD  R26,Y+1
00094a 81ba      	LDD  R27,Y+1+1
00094b 9615      	ADIW R26,5
00094c e0e0      	LDI  R30,LOW(0)
00094d 93ec      	ST   X,R30
                 _0x2040015:
00094e 81e9      	LDD  R30,Y+1
00094f 81fa      	LDD  R31,Y+1+1
000950 81a1      	LDD  R26,Z+1
000951 93aa      	ST   -Y,R26
000952 e0e0      	LDI  R30,LOW(0)
000953 93ea      	ST   -Y,R30
000954 e0a0      	LDI  R26,LOW(0)
000955 e0b0      	LDI  R27,HIGH(0)
000956 dcfd      	RCALL _disk_ioctl
000957 30e0      	CPI  R30,0
000958 f009      	BREQ _0x2040018
000959 e011      	LDI  R17,LOW(1)
                 _0x2040018:
                 _0x2040014:
00095a 2fe1      	MOV  R30,R17
                 _0x20E0013:
00095b 8118      	LDD  R17,Y+0
00095c 9623      	ADIW R28,3
00095d 9508      	RET
                 ; .FEND
                 _get_fat:
                 ; .FSTART _get_fat
00095e 940e 1d9c 	CALL __PUTPARD2
000960 9724      	SBIW R28,4
000961 940e 1dc4 	CALL __SAVELOCR4
000963 940e 18eb 	CALL SUBOPT_0x18
000965 940e 18f0 	CALL SUBOPT_0x19
000967 f050      	BRLO _0x204001A
000968 85ac      	LDD  R26,Y+12
000969 85bd      	LDD  R27,Y+12+1
00096a 965e      	ADIW R26,30
00096b 940e 1d6e 	CALL __GETD1P
00096d 940e 18eb 	CALL SUBOPT_0x18
00096f 940e 1dbd 	CALL __CPD21
000971 f018      	BRLO _0x2040019
                 _0x204001A:
000972 940e 18f8 	CALL SUBOPT_0x1A
000974 c060      	RJMP _0x20E0012
                 _0x2040019:
000975 85ac      	LDD  R26,Y+12
000976 85bd      	LDD  R27,Y+12+1
000977 9692      	ADIW R26,34
000978 940e 18fd 	CALL SUBOPT_0x1B
00097a 85ac      	LDD  R26,Y+12
00097b 85bd      	LDD  R27,Y+12+1
00097c 91ec      	LD   R30,X
00097d e0f0      	LDI  R31,0
00097e 30e1      	CPI  R30,LOW(0x1)
00097f e0a0      	LDI  R26,HIGH(0x1)
000980 07fa      	CPC  R31,R26
000981 f539      	BRNE _0x204001F
                +
000982 8528     +LDD R18 , Y + 8
000983 8539     +LDD R19 , Y + 8 + 1
                 	__GETWRS 18,19,8
000984 01f9      	MOVW R30,R18
000985 95f6      	LSR  R31
000986 95e7      	ROR  R30
                +
000987 0f2e     +ADD R18 , R30
000988 1f3f     +ADC R19 , R31
                 	__ADDWRR 18,19,30,31
000989 940e 1904 	CALL SUBOPT_0x1C
00098b f009      	BREQ _0x2040020
00098c c046      	RJMP _0x204001E
                 _0x2040020:
00098d 940e 1916 	CALL SUBOPT_0x1D
00098f 910c      	LD   R16,X
000990 2711      	CLR  R17
                +
000991 5f2f     +SUBI R18 , LOW ( - 1 )
000992 4f3f     +SBCI R19 , HIGH ( - 1 )
                 	__ADDWRN 18,19,1
000993 940e 1904 	CALL SUBOPT_0x1C
000995 f5e9      	BRNE _0x204001E
000996 940e 1916 	CALL SUBOPT_0x1D
000998 91ec      	LD   R30,X
000999 2ffe      	MOV  R31,R30
00099a e0e0      	LDI  R30,0
                +
00099b 2b0e     +OR R16 , R30
00099c 2b1f     +OR R17 , R31
                 	__ORWRR 16,17,30,31
00099d 85e8      	LDD  R30,Y+8
00099e 70e1      	ANDI R30,LOW(0x1)
00099f f021      	BREQ _0x2040022
0009a0 01f8      	MOVW R30,R16
0009a1 940e 1cca 	CALL __LSRW4
0009a3 c002      	RJMP _0x204027A
                 _0x2040022:
0009a4 01f8      	MOVW R30,R16
0009a5 70ff      	ANDI R31,HIGH(0xFFF)
                 _0x204027A:
0009a6 2766      	CLR  R22
0009a7 2777      	CLR  R23
0009a8 c02c      	RJMP _0x20E0012
                 _0x204001F:
0009a9 30e2      	CPI  R30,LOW(0x2)
0009aa e0a0      	LDI  R26,HIGH(0x2)
0009ab 07fa      	CPC  R31,R26
0009ac f479      	BRNE _0x2040025
0009ad 940e 191e 	CALL SUBOPT_0x1E
0009af 940e 1927 	CALL SUBOPT_0x1F
0009b1 940e 192e 	CALL SUBOPT_0x20
0009b3 f4f9      	BRNE _0x204001E
0009b4 85a8      	LDD  R26,Y+8
0009b5 85b9      	LDD  R27,Y+8+1
0009b6 e0e2      	LDI  R30,LOW(2)
0009b7 940e 1935 	CALL SUBOPT_0x21
0009b9 940e 193e 	CALL SUBOPT_0x22
0009bb c019      	RJMP _0x20E0012
                 _0x2040025:
0009bc 30e3      	CPI  R30,LOW(0x3)
0009bd e0a0      	LDI  R26,HIGH(0x3)
0009be 07fa      	CPC  R31,R26
0009bf f499      	BRNE _0x204001E
0009c0 940e 191e 	CALL SUBOPT_0x1E
0009c2 940e 1943 	CALL SUBOPT_0x23
0009c4 940e 192e 	CALL SUBOPT_0x20
0009c6 f461      	BRNE _0x204001E
0009c7 85a8      	LDD  R26,Y+8
0009c8 85b9      	LDD  R27,Y+8+1
0009c9 e0e4      	LDI  R30,LOW(4)
0009ca 940e 1935 	CALL SUBOPT_0x21
0009cc 940e 1d6e 	CALL __GETD1P
                +
0009ce 7fef     +ANDI R30 , LOW ( 0xFFFFFFF )
0009cf 7fff     +ANDI R31 , HIGH ( 0xFFFFFFF )
0009d0 7f6f     +ANDI R22 , BYTE3 ( 0xFFFFFFF )
0009d1 707f     +ANDI R23 , BYTE4 ( 0xFFFFFFF )
                 	__ANDD1N 0xFFFFFFF
0009d2 c002      	RJMP _0x20E0012
                 _0x204001E:
0009d3 940e 194a 	CALL SUBOPT_0x24
                 _0x20E0012:
0009d5 940e 1dcb 	CALL __LOADLOCR4
0009d7 962e      	ADIW R28,14
0009d8 9508      	RET
                 ; .FEND
                 _put_fat:
                 ; .FSTART _put_fat
0009d9 940e 1d9c 	CALL __PUTPARD2
0009db 9724      	SBIW R28,4
0009dc 940e 1dc2 	CALL __SAVELOCR6
0009de 940e 194f 	CALL SUBOPT_0x25
0009e0 940e 18f0 	CALL SUBOPT_0x19
0009e2 f050      	BRLO _0x204002A
0009e3 89aa      	LDD  R26,Y+18
0009e4 89bb      	LDD  R27,Y+18+1
0009e5 965e      	ADIW R26,30
0009e6 940e 1d6e 	CALL __GETD1P
0009e8 940e 194f 	CALL SUBOPT_0x25
0009ea 940e 1dbd 	CALL __CPD21
0009ec f010      	BRLO _0x2040029
                 _0x204002A:
0009ed e052      	LDI  R21,LOW(2)
0009ee c085      	RJMP _0x204002C
                 _0x2040029:
0009ef 89aa      	LDD  R26,Y+18
0009f0 89bb      	LDD  R27,Y+18+1
0009f1 9692      	ADIW R26,34
0009f2 940e 1d6e 	CALL __GETD1P
                +
0009f4 83ee     +STD Y + 6 , R30
0009f5 83ff     +STD Y + 6 + 1 , R31
0009f6 8768     +STD Y + 6 + 2 , R22
0009f7 8779     +STD Y + 6 + 3 , R23
                 	__PUTD1S 6
0009f8 89aa      	LDD  R26,Y+18
0009f9 89bb      	LDD  R27,Y+18+1
0009fa 91ec      	LD   R30,X
0009fb e0f0      	LDI  R31,0
0009fc 30e1      	CPI  R30,LOW(0x1)
0009fd e0a0      	LDI  R26,HIGH(0x1)
0009fe 07fa      	CPC  R31,R26
0009ff f009      	BREQ PC+2
000a00 c043      	RJMP _0x2040030
                +
000a01 850e     +LDD R16 , Y + 14
000a02 851f     +LDD R17 , Y + 14 + 1
                 	__GETWRS 16,17,14
000a03 01f8      	MOVW R30,R16
000a04 95f6      	LSR  R31
000a05 95e7      	ROR  R30
                +
000a06 0f0e     +ADD R16 , R30
000a07 1f1f     +ADC R17 , R31
                 	__ADDWRR 16,17,30,31
000a08 940e 1954 	CALL SUBOPT_0x26
000a0a f009      	BREQ _0x2040031
000a0b c063      	RJMP _0x204002F
                 _0x2040031:
000a0c 940e 1967 	CALL SUBOPT_0x27
000a0e f051      	BREQ _0x2040032
000a0f 01d9      	MOVW R26,R18
000a10 91ec      	LD   R30,X
000a11 70ef      	ANDI R30,LOW(0xF)
000a12 2fae      	MOV  R26,R30
000a13 85ea      	LDD  R30,Y+10
000a14 e0f0      	LDI  R31,0
000a15 940e 1cc1 	CALL __LSLW4
000a17 2bea      	OR   R30,R26
000a18 c001      	RJMP _0x2040033
                 _0x2040032:
000a19 85ea      	LDD  R30,Y+10
                 _0x2040033:
000a1a 01d9      	MOVW R26,R18
000a1b 93ec      	ST   X,R30
                +
000a1c 5f0f     +SUBI R16 , LOW ( - 1 )
000a1d 4f1f     +SBCI R17 , HIGH ( - 1 )
                 	__ADDWRN 16,17,1
000a1e 89aa      	LDD  R26,Y+18
000a1f 89bb      	LDD  R27,Y+18+1
000a20 9614      	ADIW R26,4
000a21 e0e1      	LDI  R30,LOW(1)
000a22 93ec      	ST   X,R30
000a23 940e 1954 	CALL SUBOPT_0x26
000a25 f009      	BREQ _0x2040035
000a26 c048      	RJMP _0x204002F
                 _0x2040035:
000a27 940e 1967 	CALL SUBOPT_0x27
000a29 f049      	BREQ _0x2040036
000a2a 940e 1972 	CALL SUBOPT_0x28
000a2c e0e4      	LDI  R30,LOW(4)
000a2d 940e 1cb5 	CALL __LSRD12
000a2f 27ff      	CLR  R31
000a30 2766      	CLR  R22
000a31 2777      	CLR  R23
000a32 c00e      	RJMP _0x2040037
                 _0x2040036:
000a33 01d9      	MOVW R26,R18
000a34 91ec      	LD   R30,X
000a35 7fe0      	ANDI R30,LOW(0xF0)
000a36 2e1e      	MOV  R1,R30
000a37 940e 1972 	CALL SUBOPT_0x28
000a39 e0e8      	LDI  R30,LOW(8)
000a3a 940e 1cb5 	CALL __LSRD12
000a3c 27ff      	CLR  R31
000a3d 2766      	CLR  R22
000a3e 2777      	CLR  R23
000a3f 70ef      	ANDI R30,LOW(0xF)
000a40 29e1      	OR   R30,R1
                 _0x2040037:
000a41 01d9      	MOVW R26,R18
000a42 93ec      	ST   X,R30
000a43 c02b      	RJMP _0x204002F
                 _0x2040030:
000a44 30e2      	CPI  R30,LOW(0x2)
000a45 e0a0      	LDI  R26,HIGH(0x2)
000a46 07fa      	CPC  R31,R26
000a47 f489      	BRNE _0x2040039
000a48 940e 1977 	CALL SUBOPT_0x29
000a4a 940e 1927 	CALL SUBOPT_0x1F
000a4c 940e 1980 	CALL SUBOPT_0x2A
000a4e f501      	BRNE _0x204002F
000a4f 85ae      	LDD  R26,Y+14
000a50 85bf      	LDD  R27,Y+14+1
000a51 e0e2      	LDI  R30,LOW(2)
000a52 940e 1988 	CALL SUBOPT_0x2B
000a54 85aa      	LDD  R26,Y+10
000a55 85bb      	LDD  R27,Y+10+1
000a56 83a0      	STD  Z+0,R26
000a57 83b1      	STD  Z+1,R27
000a58 c016      	RJMP _0x204002F
                 _0x2040039:
000a59 30e3      	CPI  R30,LOW(0x3)
000a5a e0a0      	LDI  R26,HIGH(0x3)
000a5b 07fa      	CPC  R31,R26
000a5c f489      	BRNE _0x204003D
000a5d 940e 1977 	CALL SUBOPT_0x29
000a5f 940e 1943 	CALL SUBOPT_0x23
000a61 940e 1980 	CALL SUBOPT_0x2A
000a63 f459      	BRNE _0x204002F
000a64 85ae      	LDD  R26,Y+14
000a65 85bf      	LDD  R27,Y+14+1
000a66 e0e4      	LDI  R30,LOW(4)
000a67 940e 1988 	CALL SUBOPT_0x2B
000a69 940e 1972 	CALL SUBOPT_0x28
000a6b 940e 1d92 	CALL __PUTDZ20
000a6d c001      	RJMP _0x204002F
                 _0x204003D:
000a6e e052      	LDI  R21,LOW(2)
                 _0x204002F:
000a6f 89aa      	LDD  R26,Y+18
000a70 89bb      	LDD  R27,Y+18+1
000a71 9614      	ADIW R26,4
000a72 e0e1      	LDI  R30,LOW(1)
000a73 93ec      	ST   X,R30
                 _0x204002C:
000a74 2fe5      	MOV  R30,R21
000a75 940e 1dc9 	CALL __LOADLOCR6
000a77 9664      	ADIW R28,20
000a78 9508      	RET
                 ; .FEND
                 _remove_chain_G102:
                 ; .FSTART _remove_chain_G102
000a79 940e 1d9c 	CALL __PUTPARD2
000a7b 9724      	SBIW R28,4
000a7c 931a      	ST   -Y,R17
000a7d 940e 1991 	CALL SUBOPT_0x2C
000a7f 940e 18f0 	CALL SUBOPT_0x19
000a81 f018      	BRLO _0x204003F
000a82 940e 1996 	CALL SUBOPT_0x2D
000a84 f010      	BRLO _0x204003E
                 _0x204003F:
000a85 e012      	LDI  R17,LOW(2)
000a86 c044      	RJMP _0x2040041
                 _0x204003E:
000a87 e010      	LDI  R17,LOW(0)
                 _0x2040042:
000a88 940e 1996 	CALL SUBOPT_0x2D
000a8a f008      	BRLO PC+2
000a8b c03f      	RJMP _0x2040044
000a8c 85e9      	LDD  R30,Y+9
000a8d 85fa      	LDD  R31,Y+9+1
000a8e 93fa      	ST   -Y,R31
000a8f 93ea      	ST   -Y,R30
                +
000a90 81af     +LDD R26 , Y + 7
000a91 85b8     +LDD R27 , Y + 7 + 1
000a92 8589     +LDD R24 , Y + 7 + 2
000a93 859a     +LDD R25 , Y + 7 + 3
                 	__GETD2S 7
000a94 dec9      	RCALL _get_fat
                +
000a95 83e9     +STD Y + 1 , R30
000a96 83fa     +STD Y + 1 + 1 , R31
000a97 836b     +STD Y + 1 + 2 , R22
000a98 837c     +STD Y + 1 + 3 , R23
                 	__PUTD1S 1
000a99 940e 199f 	CALL SUBOPT_0x2E
000a9b 940e 1dae 	CALL __CPD10
000a9d f169      	BREQ _0x2040044
000a9e 940e 1893 	CALL SUBOPT_0xE
000aa0 940e 19a4 	CALL SUBOPT_0x2F
000aa2 f411      	BRNE _0x2040046
000aa3 e012      	LDI  R17,LOW(2)
000aa4 c026      	RJMP _0x2040044
                 _0x2040046:
000aa5 940e 1893 	CALL SUBOPT_0xE
000aa7 940e 19ac 	CALL SUBOPT_0x30
000aa9 f411      	BRNE _0x2040047
000aaa e011      	LDI  R17,LOW(1)
000aab c01f      	RJMP _0x2040044
                 _0x2040047:
000aac 85e9      	LDD  R30,Y+9
000aad 85fa      	LDD  R31,Y+9+1
000aae 93fa      	ST   -Y,R31
000aaf 93ea      	ST   -Y,R30
                +
000ab0 81ef     +LDD R30 , Y + 7
000ab1 85f8     +LDD R31 , Y + 7 + 1
000ab2 8569     +LDD R22 , Y + 7 + 2
000ab3 857a     +LDD R23 , Y + 7 + 3
                 	__GETD1S 7
000ab4 940e 1d97 	CALL __PUTPARD1
000ab6 940e 19b4 	CALL SUBOPT_0x31
000ab8 df20      	RCALL _put_fat
000ab9 2f1e      	MOV  R17,R30
000aba 3010      	CPI  R17,0
000abb f479      	BRNE _0x2040044
000abc 85e9      	LDD  R30,Y+9
000abd 85fa      	LDD  R31,Y+9+1
000abe 940e 19b9 	CALL SUBOPT_0x32
000ac0 f029      	BREQ _0x2040049
000ac1 940e 19be 	CALL SUBOPT_0x33
000ac3 9615      	ADIW R26,5
000ac4 e0e1      	LDI  R30,LOW(1)
000ac5 93ec      	ST   X,R30
                 _0x2040049:
000ac6 940e 199f 	CALL SUBOPT_0x2E
000ac8 940e 19cc 	CALL SUBOPT_0x34
000aca cfbd      	RJMP _0x2040042
                 _0x2040044:
                 _0x2040041:
000acb 2fe1      	MOV  R30,R17
000acc 8118      	LDD  R17,Y+0
000acd c27f      	RJMP _0x20E000F
                 ; .FEND
                 _create_chain_G102:
                 ; .FSTART _create_chain_G102
000ace 940e 1d9c 	CALL __PUTPARD2
000ad0 9760      	SBIW R28,16
000ad1 89ac      	LDD  R26,Y+20
000ad2 89bd      	LDD  R27,Y+20+1
000ad3 965e      	ADIW R26,30
000ad4 940e 1d6e 	CALL __GETD1P
000ad6 940e 19d1 	CALL SUBOPT_0x35
000ad8 940e 19d4 	CALL SUBOPT_0x36
000ada 940e 1dae 	CALL __CPD10
000adc f4b1      	BRNE _0x204004A
000add 89ac      	LDD  R26,Y+20
000ade 89bd      	LDD  R27,Y+20+1
000adf 961a      	ADIW R26,10
000ae0 940e 18fd 	CALL SUBOPT_0x1B
000ae2 940e 19d9 	CALL SUBOPT_0x37
000ae4 940e 1db2 	CALL __CPD02
000ae6 f039      	BREQ _0x204004C
000ae7 940e 19de 	CALL SUBOPT_0x38
000ae9 940e 19d9 	CALL SUBOPT_0x37
000aeb 940e 1dbd 	CALL __CPD21
000aed f020      	BRLO _0x204004B
                 _0x204004C:
000aee 940e 18f8 	CALL SUBOPT_0x1A
000af0 940e 19e1 	CALL SUBOPT_0x39
                 _0x204004B:
000af2 c01c      	RJMP _0x204004E
                 _0x204004A:
000af3 940e 19e6 	CALL SUBOPT_0x3A
000af5 940e 19eb 	CALL SUBOPT_0x3B
000af7 940e 19f0 	CALL SUBOPT_0x3C
000af9 940e 19f7 	CALL SUBOPT_0x3D
000afb 940e 18f0 	CALL SUBOPT_0x19
000afd f418      	BRSH _0x204004F
000afe 940e 18f8 	CALL SUBOPT_0x1A
000b00 c08c      	RJMP _0x20E0011
                 _0x204004F:
000b01 940e 19de 	CALL SUBOPT_0x38
000b03 940e 19f7 	CALL SUBOPT_0x3D
000b05 940e 1dbd 	CALL __CPD21
000b07 f418      	BRSH _0x2040050
000b08 940e 19fc 	CALL SUBOPT_0x3E
000b0a c082      	RJMP _0x20E0011
                 _0x2040050:
000b0b 940e 19d4 	CALL SUBOPT_0x36
000b0d 940e 19e1 	CALL SUBOPT_0x39
                 _0x204004E:
000b0f 940e 1a01 	CALL SUBOPT_0x3F
000b11 940e 1a06 	CALL SUBOPT_0x40
                 _0x2040052:
000b13 940e 1a0b 	CALL SUBOPT_0x41
                +
000b15 5fef     +SUBI R30 , LOW ( - 1 )
000b16 4fff     +SBCI R31 , HIGH ( - 1 )
000b17 4f6f     +SBCI R22 , BYTE3 ( - 1 )
000b18 4f7f     +SBCI R23 , BYTE4 ( - 1 )
                 	__SUBD1N -1
000b19 940e 1a06 	CALL SUBOPT_0x40
000b1b 940e 19de 	CALL SUBOPT_0x38
000b1d 940e 18eb 	CALL SUBOPT_0x18
000b1f 940e 1dbd 	CALL __CPD21
000b21 f060      	BRLO _0x2040054
                +
000b22 e0e2     +LDI R30 , LOW ( 0x2 )
000b23 e0f0     +LDI R31 , HIGH ( 0x2 )
000b24 e060     +LDI R22 , BYTE3 ( 0x2 )
000b25 e070     +LDI R23 , BYTE4 ( 0x2 )
                 	__GETD1N 0x2
000b26 940e 1a06 	CALL SUBOPT_0x40
000b28 940e 1a10 	CALL SUBOPT_0x42
000b2a f418      	BRSH _0x2040055
000b2b 940e 1a15 	CALL SUBOPT_0x43
000b2d c05f      	RJMP _0x20E0011
                 _0x2040055:
                 _0x2040054:
000b2e 940e 19e6 	CALL SUBOPT_0x3A
000b30 940e 1972 	CALL SUBOPT_0x28
000b32 940e 19f0 	CALL SUBOPT_0x3C
000b34 940e 1a1a 	CALL SUBOPT_0x44
000b36 f0a1      	BREQ _0x2040053
000b37 940e 19f7 	CALL SUBOPT_0x3D
000b39 940e 19ac 	CALL SUBOPT_0x30
000b3b f029      	BREQ _0x2040058
000b3c 940e 19f7 	CALL SUBOPT_0x3D
000b3e 940e 19a4 	CALL SUBOPT_0x2F
000b40 f419      	BRNE _0x2040057
                 _0x2040058:
000b41 940e 19fc 	CALL SUBOPT_0x3E
000b43 c049      	RJMP _0x20E0011
                 _0x2040057:
000b44 940e 1a10 	CALL SUBOPT_0x42
000b46 f419      	BRNE _0x204005A
000b47 940e 1a15 	CALL SUBOPT_0x43
000b49 c043      	RJMP _0x20E0011
                 _0x204005A:
000b4a cfc8      	RJMP _0x2040052
                 _0x2040053:
000b4b 940e 19e6 	CALL SUBOPT_0x3A
                +
000b4d 85ea     +LDD R30 , Y + 10
000b4e 85fb     +LDD R31 , Y + 10 + 1
000b4f 856c     +LDD R22 , Y + 10 + 2
000b50 857d     +LDD R23 , Y + 10 + 3
                 	__GETD1S 10
000b51 940e 1d97 	CALL __PUTPARD1
                +
000b53 efaf     +LDI R26 , LOW ( 0xFFFFFFF )
000b54 efbf     +LDI R27 , HIGH ( 0xFFFFFFF )
000b55 ef8f     +LDI R24 , BYTE3 ( 0xFFFFFFF )
000b56 e09f     +LDI R25 , BYTE4 ( 0xFFFFFFF )
                 	__GETD2N 0xFFFFFFF
000b57 de81      	RCALL _put_fat
000b58 30e0      	CPI  R30,0
000b59 f019      	BREQ _0x204005B
000b5a 940e 194a 	CALL SUBOPT_0x24
000b5c c030      	RJMP _0x20E0011
                 _0x204005B:
000b5d 940e 19d4 	CALL SUBOPT_0x36
000b5f 940e 1dae 	CALL __CPD10
000b61 f071      	BREQ _0x204005C
000b62 940e 19e6 	CALL SUBOPT_0x3A
000b64 940e 1a1e 	CALL SUBOPT_0x45
000b66 940e 1d97 	CALL __PUTPARD1
000b68 940e 194f 	CALL SUBOPT_0x25
000b6a de6e      	RCALL _put_fat
000b6b 30e0      	CPI  R30,0
000b6c f019      	BREQ _0x204005D
000b6d 940e 194a 	CALL SUBOPT_0x24
000b6f c01d      	RJMP _0x20E0011
                 _0x204005D:
                 _0x204005C:
000b70 940e 1a0b 	CALL SUBOPT_0x41
                +
000b72 89ac     +LDD R26 , Y + 20
000b73 89bd     +LDD R27 , Y + 20 + 1
000b74 961a     +ADIW R26 , 10
000b75 940e 1d79+CALL __PUTDP1
                 	__PUTD1SNS 20,10
000b77 89ec      	LDD  R30,Y+20
000b78 89fd      	LDD  R31,Y+20+1
000b79 940e 19b9 	CALL SUBOPT_0x32
000b7b f079      	BREQ _0x204005E
000b7c 89ac      	LDD  R26,Y+20
000b7d 89bd      	LDD  R27,Y+20+1
000b7e 961e      	ADIW R26,14
000b7f 940e 1d74 	CALL __GETD1P_INC
000b81 9731      	SBIW R30,1
000b82 4060      	SBCI R22,0
000b83 4070      	SBCI R23,0
000b84 940e 1d7e 	CALL __PUTDP1_DEC
000b86 89ac      	LDD  R26,Y+20
000b87 89bd      	LDD  R27,Y+20+1
000b88 9615      	ADIW R26,5
000b89 e0e1      	LDI  R30,LOW(1)
000b8a 93ec      	ST   X,R30
                 _0x204005E:
000b8b 940e 1a0b 	CALL SUBOPT_0x41
                 _0x20E0011:
000b8d 9666      	ADIW R28,22
000b8e 9508      	RET
                 ; .FEND
                 _clust2sect:
                 ; .FSTART _clust2sect
000b8f 940e 1d9c 	CALL __PUTPARD2
000b91 940e 19de 	CALL SUBOPT_0x38
                +
000b93 50e2     +SUBI R30 , LOW ( 2 )
000b94 40f0     +SBCI R31 , HIGH ( 2 )
000b95 4060     +SBCI R22 , BYTE3 ( 2 )
000b96 4070     +SBCI R23 , BYTE4 ( 2 )
                 	__SUBD1N 2
000b97 940e 19d1 	CALL SUBOPT_0x35
000b99 81ec      	LDD  R30,Y+4
000b9a 81fd      	LDD  R31,Y+4+1
                +
000b9b 8da6     +LDD R26 , Z + 30
000b9c 8db7     +LDD R27 , Z + 30 + 1
000b9d a180     +LDD R24 , Z + 30 + 2
000b9e a191     +LDD R25 , Z + 30 + 3
                 	__GETD2Z 30
                +
000b9f e0e2     +LDI R30 , LOW ( 0x2 )
000ba0 e0f0     +LDI R31 , HIGH ( 0x2 )
000ba1 e060     +LDI R22 , BYTE3 ( 0x2 )
000ba2 e070     +LDI R23 , BYTE4 ( 0x2 )
                 	__GETD1N 0x2
000ba3 940e 1a23 	CALL SUBOPT_0x46
000ba5 940e 1d88 	CALL __GETD2S0
000ba7 940e 1dbd 	CALL __CPD21
000ba9 f018      	BRLO _0x204005F
000baa 940e 1a15 	CALL SUBOPT_0x43
000bac c376      	RJMP _0x20E000B
                 _0x204005F:
000bad 81ec      	LDD  R30,Y+4
000bae 81fd      	LDD  R31,Y+4+1
000baf 81e2      	LDD  R30,Z+2
000bb0 e0f0      	LDI  R31,0
000bb1 940e 1d88 	CALL __GETD2S0
000bb3 940e 1ce2 	CALL __CWD1
000bb5 940e 1cf9 	CALL __MULD12U
000bb7 937f      	PUSH R23
000bb8 936f      	PUSH R22
000bb9 93ff      	PUSH R31
000bba 93ef      	PUSH R30
000bbb 81ac      	LDD  R26,Y+4
000bbc 81bd      	LDD  R27,Y+4+1
000bbd 969a      	ADIW R26,42
000bbe 940e 1d6e 	CALL __GETD1P
000bc0 91af      	POP  R26
000bc1 91bf      	POP  R27
000bc2 918f      	POP  R24
000bc3 919f      	POP  R25
000bc4 940e 1c87 	CALL __ADDD12
000bc6 c35c      	RJMP _0x20E000B
                 ; .FEND
                 _dir_seek_G102:
                 ; .FSTART _dir_seek_G102
000bc7 93ba      	ST   -Y,R27
000bc8 93aa      	ST   -Y,R26
000bc9 9724      	SBIW R28,4
000bca 931a      	ST   -Y,R17
000bcb 930a      	ST   -Y,R16
000bcc 81ee      	LDD  R30,Y+6
000bcd 81ff      	LDD  R31,Y+6+1
                +
000bce 85a8     +LDD R26 , Y + 8
000bcf 85b9     +LDD R27 , Y + 8 + 1
000bd0 9614     +ADIW R26 , 4
000bd1 93ed     +ST X + , R30
000bd2 93fc     +ST X , R31
                 	__PUTW1SNS 8,4
000bd3 85a8      	LDD  R26,Y+8
000bd4 85b9      	LDD  R27,Y+8+1
000bd5 9616      	ADIW R26,6
000bd6 940e 1a28 	CALL SUBOPT_0x47
000bd8 940e 1a2f 	CALL SUBOPT_0x48
000bda 940e 19a4 	CALL SUBOPT_0x2F
000bdc f029      	BREQ _0x2040061
000bdd 940e 1a34 	CALL SUBOPT_0x49
000bdf 940e 1a39 	CALL SUBOPT_0x4A
000be1 f010      	BRLO _0x2040060
                 _0x2040061:
000be2 e0e2      	LDI  R30,LOW(2)
000be3 c078      	RJMP _0x20E0010
                 _0x2040060:
000be4 940e 1a41 	CALL SUBOPT_0x4B
000be6 f429      	BRNE _0x2040064
000be7 940e 1a34 	CALL SUBOPT_0x49
000be9 81a0      	LD   R26,Z
000bea 30a3      	CPI  R26,LOW(0x3)
000beb f009      	BREQ _0x2040065
                 _0x2040064:
000bec c006      	RJMP _0x2040063
                 _0x2040065:
000bed 940e 1a34 	CALL SUBOPT_0x49
000bef 96b6      	ADIW R30,38
000bf0 01df      	MOVW R26,R30
000bf1 940e 1a28 	CALL SUBOPT_0x47
                 _0x2040063:
000bf3 940e 1a41 	CALL SUBOPT_0x4B
000bf5 f4a1      	BRNE _0x2040066
000bf6 940e 1a48 	CALL SUBOPT_0x4C
000bf8 9638      	ADIW R30,8
000bf9 01df      	MOVW R26,R30
000bfa 940e 1d6a 	CALL __GETW1P
000bfc 81ae      	LDD  R26,Y+6
000bfd 81bf      	LDD  R27,Y+6+1
000bfe 17ae      	CP   R26,R30
000bff 07bf      	CPC  R27,R31
000c00 f010      	BRLO _0x2040067
000c01 e0e2      	LDI  R30,LOW(2)
000c02 c059      	RJMP _0x20E0010
                 _0x2040067:
000c03 940e 1a34 	CALL SUBOPT_0x49
000c05 96b6      	ADIW R30,38
000c06 01df      	MOVW R26,R30
000c07 940e 1d6e 	CALL __GETD1P
000c09 c037      	RJMP _0x204027B
                 _0x2040066:
000c0a 940e 1a34 	CALL SUBOPT_0x49
000c0c 81e2      	LDD  R30,Z+2
000c0d e1a0      	LDI  R26,LOW(16)
000c0e 9fea      	MUL  R30,R26
000c0f 0180      	MOVW R16,R0
                 _0x2040069:
000c10 81ae      	LDD  R26,Y+6
000c11 81bf      	LDD  R27,Y+6+1
000c12 17a0      	CP   R26,R16
000c13 07b1      	CPC  R27,R17
000c14 f128      	BRLO _0x204006B
000c15 940e 1a34 	CALL SUBOPT_0x49
000c17 93fa      	ST   -Y,R31
000c18 93ea      	ST   -Y,R30
000c19 940e 19d9 	CALL SUBOPT_0x37
000c1b dd42      	RCALL _get_fat
                +
000c1c 83ea     +STD Y + 2 , R30
000c1d 83fb     +STD Y + 2 + 1 , R31
000c1e 836c     +STD Y + 2 + 2 , R22
000c1f 837d     +STD Y + 2 + 3 , R23
                 	__PUTD1S 2
000c20 940e 1a2f 	CALL SUBOPT_0x48
000c22 940e 19ac 	CALL SUBOPT_0x30
000c24 f411      	BRNE _0x204006C
000c25 e0e1      	LDI  R30,LOW(1)
000c26 c035      	RJMP _0x20E0010
                 _0x204006C:
000c27 940e 1a2f 	CALL SUBOPT_0x48
000c29 940e 18f0 	CALL SUBOPT_0x19
000c2b f028      	BRLO _0x204006E
000c2c 940e 1a34 	CALL SUBOPT_0x49
000c2e 940e 1a39 	CALL SUBOPT_0x4A
000c30 f010      	BRLO _0x204006D
                 _0x204006E:
000c31 e0e2      	LDI  R30,LOW(2)
000c32 c029      	RJMP _0x20E0010
                 _0x204006D:
000c33 81ee      	LDD  R30,Y+6
000c34 81ff      	LDD  R31,Y+6+1
000c35 1be0      	SUB  R30,R16
000c36 0bf1      	SBC  R31,R17
000c37 83ee      	STD  Y+6,R30
000c38 83ff      	STD  Y+6+1,R31
000c39 cfd6      	RJMP _0x2040069
                 _0x204006B:
000c3a 940e 1a48 	CALL SUBOPT_0x4C
000c3c 93fa      	ST   -Y,R31
000c3d 93ea      	ST   -Y,R30
000c3e 940e 19d9 	CALL SUBOPT_0x37
000c40 df4e      	RCALL _clust2sect
                 _0x204027B:
000c41 01df      	MOVW R26,R30
000c42 01cb      	MOVW R24,R22
000c43 81ee      	LDD  R30,Y+6
000c44 81ff      	LDD  R31,Y+6+1
000c45 940e 1cca 	CALL __LSRW4
000c47 940e 1a52 	CALL SUBOPT_0x4D
                +
000c49 85a8     +LDD R26 , Y + 8
000c4a 85b9     +LDD R27 , Y + 8 + 1
000c4b 961e     +ADIW R26 , 14
000c4c 940e 1d79+CALL __PUTDP1
                 	__PUTD1SNS 8,14
000c4e 940e 1a34 	CALL SUBOPT_0x49
000c50 96f2      	ADIW R30,50
000c51 01df      	MOVW R26,R30
000c52 81ee      	LDD  R30,Y+6
000c53 81ff      	LDD  R31,Y+6+1
000c54 940e 1a57 	CALL SUBOPT_0x4E
                +
000c56 85a8     +LDD R26 , Y + 8
000c57 85b9     +LDD R27 , Y + 8 + 1
000c58 9652     +ADIW R26 , 18
000c59 93ed     +ST X + , R30
000c5a 93fc     +ST X , R31
                 	__PUTW1SNS 8,18
000c5b e0e0      	LDI  R30,LOW(0)
                 _0x20E0010:
000c5c 8119      	LDD  R17,Y+1
000c5d 8108      	LDD  R16,Y+0
000c5e 962a      	ADIW R28,10
000c5f 9508      	RET
                 ; .FEND
                 _dir_next_G102:
                 ; .FSTART _dir_next_G102
000c60 93aa      	ST   -Y,R26
000c61 9724      	SBIW R28,4
000c62 940e 1dc4 	CALL __SAVELOCR4
000c64 85a9      	LDD  R26,Y+9
000c65 85ba      	LDD  R27,Y+9+1
000c66 9614      	ADIW R26,4
000c67 940e 1d6a 	CALL __GETW1P
000c69 9631      	ADIW R30,1
000c6a 018f      	MOVW R16,R30
000c6b 2e00      	MOV  R0,R16
000c6c 2a01      	OR   R0,R17
000c6d f031      	BREQ _0x2040071
000c6e 85a9      	LDD  R26,Y+9
000c6f 85ba      	LDD  R27,Y+9+1
000c70 961e      	ADIW R26,14
000c71 940e 1a5f 	CALL SUBOPT_0x4F
000c73 f411      	BRNE _0x2040070
                 _0x2040071:
000c74 e0e4      	LDI  R30,LOW(4)
000c75 c0d5      	RJMP _0x20E000E
                 _0x2040070:
000c76 01f8      	MOVW R30,R16
000c77 70ef      	ANDI R30,LOW(0xF)
000c78 f009      	BREQ PC+2
000c79 c0be      	RJMP _0x2040073
000c7a 940e 19be 	CALL SUBOPT_0x33
000c7c 961a      	ADIW R26,10
000c7d 940e 1a5f 	CALL SUBOPT_0x4F
000c7f f461      	BRNE _0x2040074
000c80 940e 1a64 	CALL SUBOPT_0x50
000c82 9638      	ADIW R30,8
000c83 01df      	MOVW R26,R30
000c84 940e 1d6a 	CALL __GETW1P
000c86 170e      	CP   R16,R30
000c87 071f      	CPC  R17,R31
000c88 f010      	BRLO _0x2040075
000c89 e0e4      	LDI  R30,LOW(4)
000c8a c0c0      	RJMP _0x20E000E
                 _0x2040075:
000c8b c0ac      	RJMP _0x2040076
                 _0x2040074:
000c8c 01f8      	MOVW R30,R16
000c8d 940e 1cca 	CALL __LSRW4
000c8f 010f      	MOVW R0,R30
000c90 940e 1a64 	CALL SUBOPT_0x50
000c92 81e2      	LDD  R30,Z+2
000c93 e0f0      	LDI  R31,0
000c94 9731      	SBIW R30,1
000c95 21e0      	AND  R30,R0
000c96 21f1      	AND  R31,R1
000c97 9730      	SBIW R30,0
000c98 f009      	BREQ PC+2
000c99 c09e      	RJMP _0x2040077
000c9a 940e 1a64 	CALL SUBOPT_0x50
000c9c 940e 1a69 	CALL SUBOPT_0x51
000c9e dcbf      	RCALL _get_fat
000c9f 940e 19e1 	CALL SUBOPT_0x39
000ca1 940e 19d9 	CALL SUBOPT_0x37
000ca3 940e 18f0 	CALL SUBOPT_0x19
000ca5 f410      	BRSH _0x2040078
000ca6 e0e2      	LDI  R30,LOW(2)
000ca7 c0a3      	RJMP _0x20E000E
                 _0x2040078:
000ca8 940e 19d9 	CALL SUBOPT_0x37
000caa 940e 19ac 	CALL SUBOPT_0x30
000cac f411      	BRNE _0x2040079
000cad e0e1      	LDI  R30,LOW(1)
000cae c09c      	RJMP _0x20E000E
                 _0x2040079:
000caf 940e 1a64 	CALL SUBOPT_0x50
000cb1 967e      	ADIW R30,30
000cb2 01df      	MOVW R26,R30
000cb3 940e 1d6e 	CALL __GETD1P
000cb5 940e 19d9 	CALL SUBOPT_0x37
000cb7 940e 1dbd 	CALL __CPD21
000cb9 f408      	BRSH PC+2
000cba c06d      	RJMP _0x204007A
000cbb 85e8      	LDD  R30,Y+8
000cbc 30e0      	CPI  R30,0
000cbd f411      	BRNE _0x204007B
000cbe e0e4      	LDI  R30,LOW(4)
000cbf c08b      	RJMP _0x20E000E
                 _0x204007B:
000cc0 940e 1a64 	CALL SUBOPT_0x50
000cc2 940e 1a69 	CALL SUBOPT_0x51
000cc4 de09      	RCALL _create_chain_G102
000cc5 940e 1a72 	CALL SUBOPT_0x52
000cc7 940e 1dae 	CALL __CPD10
000cc9 f411      	BRNE _0x204007C
000cca e0e7      	LDI  R30,LOW(7)
000ccb c07f      	RJMP _0x20E000E
                 _0x204007C:
000ccc 940e 19d9 	CALL SUBOPT_0x37
000cce 940e 19a4 	CALL SUBOPT_0x2F
000cd0 f411      	BRNE _0x204007D
000cd1 e0e2      	LDI  R30,LOW(2)
000cd2 c078      	RJMP _0x20E000E
                 _0x204007D:
000cd3 940e 19d9 	CALL SUBOPT_0x37
000cd5 940e 19ac 	CALL SUBOPT_0x30
000cd7 f411      	BRNE _0x204007E
000cd8 e0e1      	LDI  R30,LOW(1)
000cd9 c071      	RJMP _0x20E000E
                 _0x204007E:
000cda 940e 1a64 	CALL SUBOPT_0x50
000cdc 940e 18bc 	CALL SUBOPT_0x12
000cde 30e0      	CPI  R30,0
000cdf f011      	BREQ _0x204007F
000ce0 e0e1      	LDI  R30,LOW(1)
000ce1 c069      	RJMP _0x20E000E
                 _0x204007F:
000ce2 940e 1a64 	CALL SUBOPT_0x50
000ce4 940e 18cc 	CALL SUBOPT_0x14
000ce6 940e 1a64 	CALL SUBOPT_0x50
000ce8 01df      	MOVW R26,R30
000ce9 96be      	ADIW R30,46
000cea 93ff      	PUSH R31
000ceb 93ef      	PUSH R30
000cec 01fd      	MOVW R30,R26
000ced 940e 1a74 	CALL SUBOPT_0x53
000cef 91af      	POP  R26
000cf0 91bf      	POP  R27
000cf1 940e 1d79 	CALL __PUTDP1
000cf3 e030      	LDI  R19,LOW(0)
                 _0x2040081:
000cf4 940e 1a64 	CALL SUBOPT_0x50
000cf6 81e2      	LDD  R30,Z+2
000cf7 173e      	CP   R19,R30
000cf8 f4d8      	BRSH _0x2040082
000cf9 940e 1a64 	CALL SUBOPT_0x50
000cfb 9634      	ADIW R30,4
000cfc e0a1      	LDI  R26,LOW(1)
000cfd 83a0      	STD  Z+0,R26
000cfe 940e 1a64 	CALL SUBOPT_0x50
000d00 940e 18bc 	CALL SUBOPT_0x12
000d02 30e0      	CPI  R30,0
000d03 f011      	BREQ _0x2040083
000d04 e0e1      	LDI  R30,LOW(1)
000d05 c045      	RJMP _0x20E000E
                 _0x2040083:
000d06 940e 1a64 	CALL SUBOPT_0x50
000d08 96be      	ADIW R30,46
000d09 01df      	MOVW R26,R30
000d0a 940e 1d74 	CALL __GETD1P_INC
                +
000d0c 5fef     +SUBI R30 , LOW ( - 1 )
000d0d 4fff     +SBCI R31 , HIGH ( - 1 )
000d0e 4f6f     +SBCI R22 , BYTE3 ( - 1 )
000d0f 4f7f     +SBCI R23 , BYTE4 ( - 1 )
                 	__SUBD1N -1
000d10 940e 1d7e 	CALL __PUTDP1_DEC
000d12 5f3f      	SUBI R19,-1
000d13 cfe0      	RJMP _0x2040081
                 _0x2040082:
000d14 940e 1a64 	CALL SUBOPT_0x50
000d16 96be      	ADIW R30,46
000d17 93ff      	PUSH R31
000d18 93ef      	PUSH R30
000d19 01df      	MOVW R26,R30
000d1a 940e 1d6e 	CALL __GETD1P
000d1c 01df      	MOVW R26,R30
000d1d 01cb      	MOVW R24,R22
000d1e 2fe3      	MOV  R30,R19
000d1f e0f0      	LDI  R31,0
000d20 940e 1ce2 	CALL __CWD1
000d22 940e 1a23 	CALL SUBOPT_0x46
000d24 91af      	POP  R26
000d25 91bf      	POP  R27
000d26 940e 1d79 	CALL __PUTDP1
                 _0x204007A:
000d28 940e 1a01 	CALL SUBOPT_0x3F
                +
000d2a 85a9     +LDD R26 , Y + 9
000d2b 85ba     +LDD R27 , Y + 9 + 1
000d2c 961a     +ADIW R26 , 10
000d2d 940e 1d79+CALL __PUTDP1
                 	__PUTD1SNS 9,10
000d2f 940e 1a64 	CALL SUBOPT_0x50
000d31 940e 1a74 	CALL SUBOPT_0x53
                +
000d33 85a9     +LDD R26 , Y + 9
000d34 85ba     +LDD R27 , Y + 9 + 1
000d35 961e     +ADIW R26 , 14
000d36 940e 1d79+CALL __PUTDP1
                 	__PUTD1SNS 9,14
                 _0x2040077:
                 _0x2040076:
                 _0x2040073:
000d38 01f8      	MOVW R30,R16
                +
000d39 85a9     +LDD R26 , Y + 9
000d3a 85ba     +LDD R27 , Y + 9 + 1
000d3b 9614     +ADIW R26 , 4
000d3c 93ed     +ST X + , R30
000d3d 93fc     +ST X , R31
                 	__PUTW1SNS 9,4
000d3e 940e 1a64 	CALL SUBOPT_0x50
000d40 96f2      	ADIW R30,50
000d41 01df      	MOVW R26,R30
000d42 01f8      	MOVW R30,R16
000d43 940e 1a57 	CALL SUBOPT_0x4E
                +
000d45 85a9     +LDD R26 , Y + 9
000d46 85ba     +LDD R27 , Y + 9 + 1
000d47 9652     +ADIW R26 , 18
000d48 93ed     +ST X + , R30
000d49 93fc     +ST X , R31
                 	__PUTW1SNS 9,18
000d4a e0e0      	LDI  R30,LOW(0)
                 _0x20E000E:
000d4b 940e 1dcb 	CALL __LOADLOCR4
                 _0x20E000F:
000d4d 962b      	ADIW R28,11
000d4e 9508      	RET
                 ; .FEND
                 _dir_find_G102:
                 ; .FSTART _dir_find_G102
000d4f 940e 1a79 	CALL SUBOPT_0x54
000d51 f021      	BREQ _0x2040084
000d52 2fe1      	MOV  R30,R17
000d53 940e 1dcb 	CALL __LOADLOCR4
000d55 c1cd      	RJMP _0x20E000B
                 _0x2040084:
                 _0x2040086:
000d56 940e 1a88 	CALL SUBOPT_0x55
000d58 f501      	BRNE _0x2040087
000d59 81ac      	LDD  R26,Y+4
000d5a 81bd      	LDD  R27,Y+4+1
000d5b 9652      	ADIW R26,18
000d5c 912d      	LD   R18,X+
000d5d 913c      	LD   R19,X
000d5e 01d9      	MOVW R26,R18
000d5f 910c      	LD   R16,X
000d60 3000      	CPI  R16,0
000d61 f411      	BRNE _0x2040089
000d62 e014      	LDI  R17,LOW(4)
000d63 c015      	RJMP _0x2040087
                 _0x2040089:
000d64 01f9      	MOVW R30,R18
000d65 85e3      	LDD  R30,Z+11
000d66 70e8      	ANDI R30,LOW(0x8)
000d67 f431      	BRNE _0x204008B
000d68 940e 1a99 	CALL SUBOPT_0x56
000d6a 940e 17fa 	CALL _memcmp
000d6c 30e0      	CPI  R30,0
000d6d f009      	BREQ _0x204008C
                 _0x204008B:
000d6e c001      	RJMP _0x204008A
                 _0x204008C:
000d6f c009      	RJMP _0x2040087
                 _0x204008A:
000d70 81ec      	LDD  R30,Y+4
000d71 81fd      	LDD  R31,Y+4+1
000d72 93fa      	ST   -Y,R31
000d73 93ea      	ST   -Y,R30
000d74 e0a0      	LDI  R26,LOW(0)
000d75 deea      	RCALL _dir_next_G102
000d76 2f1e      	MOV  R17,R30
000d77 3010      	CPI  R17,0
000d78 f2e9      	BREQ _0x2040086
                 _0x2040087:
000d79 2fe1      	MOV  R30,R17
000d7a 940e 1dcb 	CALL __LOADLOCR4
000d7c c1a6      	RJMP _0x20E000B
                 ; .FEND
                 _dir_register_G102:
                 ; .FSTART _dir_register_G102
000d7d 940e 1a79 	CALL SUBOPT_0x54
000d7f f4b1      	BRNE _0x2040099
                 _0x204009B:
000d80 940e 1a88 	CALL SUBOPT_0x55
000d82 f499      	BRNE _0x204009C
000d83 81ec      	LDD  R30,Y+4
000d84 81fd      	LDD  R31,Y+4+1
000d85 89a2      	LDD  R26,Z+18
000d86 89b3      	LDD  R27,Z+19
000d87 910c      	LD   R16,X
000d88 3e05      	CPI  R16,229
000d89 f011      	BREQ _0x204009F
000d8a 3000      	CPI  R16,0
000d8b f409      	BRNE _0x204009E
                 _0x204009F:
000d8c c009      	RJMP _0x204009C
                 _0x204009E:
000d8d 81ec      	LDD  R30,Y+4
000d8e 81fd      	LDD  R31,Y+4+1
000d8f 93fa      	ST   -Y,R31
000d90 93ea      	ST   -Y,R30
000d91 e0a1      	LDI  R26,LOW(1)
000d92 decd      	RCALL _dir_next_G102
000d93 2f1e      	MOV  R17,R30
000d94 3010      	CPI  R17,0
000d95 f351      	BREQ _0x204009B
                 _0x204009C:
                 _0x2040099:
000d96 3010      	CPI  R17,0
000d97 f529      	BRNE _0x20400A1
000d98 940e 1a88 	CALL SUBOPT_0x55
000d9a f511      	BRNE _0x20400A2
000d9b 81ac      	LDD  R26,Y+4
000d9c 81bd      	LDD  R27,Y+4+1
000d9d 9652      	ADIW R26,18
000d9e 912d      	LD   R18,X+
000d9f 913c      	LD   R19,X
000da0 933a      	ST   -Y,R19
000da1 932a      	ST   -Y,R18
000da2 e0e0      	LDI  R30,LOW(0)
000da3 93ea      	ST   -Y,R30
000da4 e2a0      	LDI  R26,LOW(32)
000da5 e0b0      	LDI  R27,0
000da6 940e 1825 	CALL _memset
000da8 940e 1a99 	CALL SUBOPT_0x56
000daa 940e 1813 	CALL _memcpy
000dac 81ac      	LDD  R26,Y+4
000dad 81bd      	LDD  R27,Y+4+1
000dae 9654      	ADIW R26,20
000daf 940e 1d6a 	CALL __GETW1P
000db1 85e3      	LDD  R30,Z+11
000db2 71e8      	ANDI R30,LOW(0x18)
                +
000db3 01d9     +MOVW R26 , R18
000db4 961c     +ADIW R26 , 12
000db5 93ec     +ST X , R30
                 	__PUTB1RNS 18,12
000db6 81ac      	LDD  R26,Y+4
000db7 81bd      	LDD  R27,Y+4+1
000db8 940e 1d6a 	CALL __GETW1P
000dba 9634      	ADIW R30,4
000dbb e0a1      	LDI  R26,LOW(1)
000dbc 83a0      	STD  Z+0,R26
                 _0x20400A2:
                 _0x20400A1:
000dbd 2fe1      	MOV  R30,R17
000dbe 940e 1dcb 	CALL __LOADLOCR4
000dc0 c162      	RJMP _0x20E000B
                 ; .FEND
                 _create_name_G102:
                 ; .FSTART _create_name_G102
000dc1 93ba      	ST   -Y,R27
000dc2 93aa      	ST   -Y,R26
000dc3 9725      	SBIW R28,5
000dc4 940e 1dc2 	CALL __SAVELOCR6
000dc6 85ad      	LDD  R26,Y+13
000dc7 85be      	LDD  R27,Y+13+1
000dc8 9654      	ADIW R26,20
000dc9 914d      	LD   R20,X+
000dca 915c      	LD   R21,X
000dcb 935a      	ST   -Y,R21
000dcc 934a      	ST   -Y,R20
000dcd e2e0      	LDI  R30,LOW(32)
000dce 93ea      	ST   -Y,R30
000dcf e0ab      	LDI  R26,LOW(11)
000dd0 e0b0      	LDI  R27,0
000dd1 940e 1825 	CALL _memset
000dd3 e0e0      	LDI  R30,LOW(0)
000dd4 87e8      	STD  Y+8,R30
000dd5 87e9      	STD  Y+8+1,R30
000dd6 2f1e      	MOV  R17,R30
000dd7 2f2e      	MOV  R18,R30
000dd8 e0e8      	LDI  R30,LOW(8)
000dd9 87ea      	STD  Y+10,R30
000dda 85ab      	LDD  R26,Y+11
000ddb 85bc      	LDD  R27,Y+11+1
000ddc 940e 1d6a 	CALL __GETW1P
000dde 83ee      	STD  Y+6,R30
000ddf 83ff      	STD  Y+6+1,R31
000de0 940e 1aa4 	CALL SUBOPT_0x57
000de2 0fae      	ADD  R26,R30
000de3 1fbf      	ADC  R27,R31
000de4 91ac      	LD   R26,X
000de5 32ae      	CPI  R26,LOW(0x2E)
000de6 f509      	BRNE _0x20400A5
                 _0x20400A7:
000de7 940e 1aa9 	CALL SUBOPT_0x58
000de9 320e      	CPI  R16,46
000dea f421      	BRNE _0x20400AA
000deb 85a8      	LDD  R26,Y+8
000dec 85b9      	LDD  R27,Y+8+1
000ded 9713      	SBIW R26,3
000dee f00c      	BRLT _0x20400A9
                 _0x20400AA:
000def c003      	RJMP _0x20400A8
                 _0x20400A9:
000df0 940e 1ab5 	CALL SUBOPT_0x59
000df2 cff4      	RJMP _0x20400A7
                 _0x20400A8:
000df3 320f      	CPI  R16,47
000df4 f021      	BREQ _0x20400AD
000df5 350c      	CPI  R16,92
000df6 f011      	BREQ _0x20400AD
000df7 3201      	CPI  R16,33
000df8 f408      	BRSH _0x20400AE
                 _0x20400AD:
000df9 c002      	RJMP _0x20400AC
                 _0x20400AE:
000dfa e0e6      	LDI  R30,LOW(6)
000dfb c06d      	RJMP _0x20E000C
                 _0x20400AC:
000dfc 940e 1aa4 	CALL SUBOPT_0x57
000dfe 940e 1abc 	CALL SUBOPT_0x5A
000e00 f410      	BRSH _0x20400AF
000e01 e2e4      	LDI  R30,LOW(36)
000e02 c001      	RJMP _0x20400B0
                 _0x20400AF:
000e03 e2e0      	LDI  R30,LOW(32)
                 _0x20400B0:
                +
000e04 01da     +MOVW R26 , R20
000e05 961b     +ADIW R26 , 11
000e06 93ec     +ST X , R30
                 	__PUTB1RNS 20,11
000e07 c060      	RJMP _0x20E000D
                 _0x20400A5:
                 _0x20400B3:
000e08 940e 1aa9 	CALL SUBOPT_0x58
000e0a 3201      	CPI  R16,33
000e0b f020      	BRLO _0x20400B6
000e0c 320f      	CPI  R16,47
000e0d f011      	BREQ _0x20400B6
000e0e 350c      	CPI  R16,92
000e0f f409      	BRNE _0x20400B5
                 _0x20400B6:
000e10 c032      	RJMP _0x20400B4
                 _0x20400B5:
000e11 320e      	CPI  R16,46
000e12 f019      	BREQ _0x20400B9
000e13 85ea      	LDD  R30,Y+10
000e14 172e      	CP   R18,R30
000e15 f068      	BRLO _0x20400B8
                 _0x20400B9:
000e16 85aa      	LDD  R26,Y+10
000e17 30a8      	CPI  R26,LOW(0x8)
000e18 f411      	BRNE _0x20400BC
000e19 320e      	CPI  R16,46
000e1a f011      	BREQ _0x20400BB
                 _0x20400BC:
000e1b e0e6      	LDI  R30,LOW(6)
000e1c c04c      	RJMP _0x20E000C
                 _0x20400BB:
000e1d e028      	LDI  R18,LOW(8)
000e1e e0eb      	LDI  R30,LOW(11)
000e1f 87ea      	STD  Y+10,R30
000e20 0f11      	LSL  R17
000e21 0f11      	LSL  R17
000e22 c01f      	RJMP _0x20400B2
                 _0x20400B8:
000e23 3800      	CPI  R16,128
000e24 f018      	BRLO _0x20400BE
000e25 6013      	ORI  R17,LOW(3)
000e26 e0e6      	LDI  R30,LOW(6)
000e27 c041      	RJMP _0x20E000C
                 _0x20400BE:
000e28 e5e4      	LDI  R30,LOW(_k1*2)
000e29 e0f0      	LDI  R31,HIGH(_k1*2)
000e2a 93fa      	ST   -Y,R31
000e2b 93ea      	ST   -Y,R30
000e2c 2fa0      	MOV  R26,R16
000e2d da4b      	RCALL _chk_chrf_G102
000e2e 9730      	SBIW R30,0
000e2f f011      	BREQ _0x20400C4
000e30 e0e6      	LDI  R30,LOW(6)
000e31 c037      	RJMP _0x20E000C
                 _0x20400C4:
000e32 3401      	CPI  R16,65
000e33 f010      	BRLO _0x20400C6
000e34 350b      	CPI  R16,91
000e35 f008      	BRLO _0x20400C7
                 _0x20400C6:
000e36 c002      	RJMP _0x20400C5
                 _0x20400C7:
000e37 6012      	ORI  R17,LOW(2)
000e38 c007      	RJMP _0x20400C8
                 _0x20400C5:
000e39 3601      	CPI  R16,97
000e3a f010      	BRLO _0x20400CA
000e3b 370b      	CPI  R16,123
000e3c f008      	BRLO _0x20400CB
                 _0x20400CA:
000e3d c002      	RJMP _0x20400C9
                 _0x20400CB:
000e3e 6011      	ORI  R17,LOW(1)
000e3f 5200      	SUBI R16,LOW(32)
                 _0x20400C9:
                 _0x20400C8:
000e40 940e 1ab5 	CALL SUBOPT_0x59
                 _0x20400B2:
000e42 cfc5      	RJMP _0x20400B3
                 _0x20400B4:
000e43 940e 1aa4 	CALL SUBOPT_0x57
000e45 940e 1abc 	CALL SUBOPT_0x5A
000e47 f410      	BRSH _0x20400CC
000e48 e0e4      	LDI  R30,LOW(4)
000e49 c001      	RJMP _0x20400CD
                 _0x20400CC:
000e4a e0e0      	LDI  R30,LOW(0)
                 _0x20400CD:
000e4b 2f0e      	MOV  R16,R30
000e4c 3020      	CPI  R18,0
000e4d f411      	BRNE _0x20400CF
000e4e e0e6      	LDI  R30,LOW(6)
000e4f c019      	RJMP _0x20E000C
                 _0x20400CF:
000e50 01da      	MOVW R26,R20
000e51 91ac      	LD   R26,X
000e52 3ea5      	CPI  R26,LOW(0xE5)
000e53 f419      	BRNE _0x20400D0
000e54 01da      	MOVW R26,R20
000e55 e0e5      	LDI  R30,LOW(5)
000e56 93ec      	ST   X,R30
                 _0x20400D0:
000e57 85aa      	LDD  R26,Y+10
000e58 30a8      	CPI  R26,LOW(0x8)
000e59 f411      	BRNE _0x20400D1
000e5a 0f11      	LSL  R17
000e5b 0f11      	LSL  R17
                 _0x20400D1:
000e5c 2fe1      	MOV  R30,R17
000e5d 70e3      	ANDI R30,LOW(0x3)
000e5e 30e1      	CPI  R30,LOW(0x1)
000e5f f409      	BRNE _0x20400D2
000e60 6100      	ORI  R16,LOW(16)
                 _0x20400D2:
000e61 2fe1      	MOV  R30,R17
000e62 70ec      	ANDI R30,LOW(0xC)
000e63 30e4      	CPI  R30,LOW(0x4)
000e64 f409      	BRNE _0x20400D3
000e65 6008      	ORI  R16,LOW(8)
                 _0x20400D3:
000e66 01fa      	MOVW R30,R20
                +
000e67 8703     +STD Z + 11 , R16
                 	__PUTBZR 16,11
                 _0x20E000D:
000e68 e0e0      	LDI  R30,LOW(0)
                 _0x20E000C:
000e69 940e 1dc9 	CALL __LOADLOCR6
000e6b 962f      	ADIW R28,15
000e6c 9508      	RET
                 ; .FEND
                 _follow_path_G102:
                 ; .FSTART _follow_path_G102
000e6d 93ba      	ST   -Y,R27
000e6e 93aa      	ST   -Y,R26
000e6f 940e 1dc4 	CALL __SAVELOCR4
                 _0x20400E9:
000e71 e0e1      	LDI  R30,LOW(1)
000e72 30e0      	CPI  R30,0
000e73 f029      	BREQ _0x20400EC
000e74 81ac      	LDD  R26,Y+4
000e75 81bd      	LDD  R27,Y+4+1
000e76 91ac      	LD   R26,X
000e77 32a0      	CPI  R26,LOW(0x20)
000e78 f009      	BREQ _0x20400ED
                 _0x20400EC:
000e79 c006      	RJMP _0x20400EB
                 _0x20400ED:
000e7a 81ec      	LDD  R30,Y+4
000e7b 81fd      	LDD  R31,Y+4+1
000e7c 9631      	ADIW R30,1
000e7d 83ec      	STD  Y+4,R30
000e7e 83fd      	STD  Y+4+1,R31
000e7f cff1      	RJMP _0x20400E9
                 _0x20400EB:
000e80 81ac      	LDD  R26,Y+4
000e81 81bd      	LDD  R27,Y+4+1
000e82 91ac      	LD   R26,X
000e83 32af      	CPI  R26,LOW(0x2F)
000e84 f029      	BREQ _0x20400EF
000e85 81ac      	LDD  R26,Y+4
000e86 81bd      	LDD  R27,Y+4+1
000e87 91ac      	LD   R26,X
000e88 35ac      	CPI  R26,LOW(0x5C)
000e89 f459      	BRNE _0x20400EE
                 _0x20400EF:
000e8a 81ec      	LDD  R30,Y+4
000e8b 81fd      	LDD  R31,Y+4+1
000e8c 9631      	ADIW R30,1
000e8d 83ec      	STD  Y+4,R30
000e8e 83fd      	STD  Y+4+1,R31
000e8f 81ae      	LDD  R26,Y+6
000e90 81bf      	LDD  R27,Y+6+1
000e91 9616      	ADIW R26,6
000e92 940e 1ac4 	CALL SUBOPT_0x5B
000e94 c00a      	RJMP _0x20400F1
                 _0x20400EE:
000e95 81ae      	LDD  R26,Y+6
000e96 81bf      	LDD  R27,Y+6+1
000e97 940e 1d6a 	CALL __GETW1P
000e99 9676      	ADIW R30,22
000e9a 01df      	MOVW R26,R30
000e9b 940e 1d6e 	CALL __GETD1P
000e9d 940e 1ac8 	CALL SUBOPT_0x5C
                 _0x20400F1:
000e9f 81ac      	LDD  R26,Y+4
000ea0 81bd      	LDD  R27,Y+4+1
000ea1 91ac      	LD   R26,X
000ea2 27bb      	CLR  R27
000ea3 9790      	SBIW R26,32
000ea4 f460      	BRSH _0x20400F2
000ea5 940e 1ace 	CALL SUBOPT_0x5D
000ea7 e0a0      	LDI  R26,LOW(0)
000ea8 e0b0      	LDI  R27,0
000ea9 dd1d      	RCALL _dir_seek_G102
000eaa 2f1e      	MOV  R17,R30
000eab 81ae      	LDD  R26,Y+6
000eac 81bf      	LDD  R27,Y+6+1
000ead 9652      	ADIW R26,18
000eae 940e 1ad3 	CALL SUBOPT_0x5E
000eb0 c03d      	RJMP _0x20400F3
                 _0x20400F2:
                 _0x20400F5:
000eb1 940e 1ace 	CALL SUBOPT_0x5D
000eb3 01de      	MOVW R26,R28
000eb4 9616      	ADIW R26,6
000eb5 df0b      	RCALL _create_name_G102
000eb6 2f1e      	MOV  R17,R30
000eb7 3010      	CPI  R17,0
000eb8 f5a9      	BRNE _0x20400F6
000eb9 81ae      	LDD  R26,Y+6
000eba 81bf      	LDD  R27,Y+6+1
000ebb de93      	RCALL _dir_find_G102
000ebc 2f1e      	MOV  R17,R30
000ebd 81ae      	LDD  R26,Y+6
000ebe 81bf      	LDD  R27,Y+6+1
000ebf 9654      	ADIW R26,20
000ec0 940e 1d6a 	CALL __GETW1P
000ec2 85e3      	LDD  R30,Z+11
000ec3 70e4      	ANDI R30,LOW(0x4)
000ec4 2f0e      	MOV  R16,R30
000ec5 3010      	CPI  R17,0
000ec6 f039      	BREQ _0x20400F8
000ec7 3014      	CPI  R17,4
000ec8 f411      	BRNE _0x20400FA
000ec9 3000      	CPI  R16,0
000eca f009      	BREQ _0x20400FB
                 _0x20400FA:
000ecb c001      	RJMP _0x20400F9
                 _0x20400FB:
000ecc e015      	LDI  R17,LOW(5)
                 _0x20400F9:
000ecd c020      	RJMP _0x20400F6
                 _0x20400F8:
000ece 3000      	CPI  R16,0
000ecf f4f1      	BRNE _0x20400F6
000ed0 81ae      	LDD  R26,Y+6
000ed1 81bf      	LDD  R27,Y+6+1
000ed2 9652      	ADIW R26,18
000ed3 912d      	LD   R18,X+
000ed4 913c      	LD   R19,X
000ed5 01f9      	MOVW R30,R18
000ed6 85e3      	LDD  R30,Z+11
000ed7 71e0      	ANDI R30,LOW(0x10)
000ed8 f411      	BRNE _0x20400FD
000ed9 e015      	LDI  R17,LOW(5)
000eda c013      	RJMP _0x20400F6
                 _0x20400FD:
000edb 940e 1ad8 	CALL SUBOPT_0x5F
000edd 940e 1cdd 	CALL __LSLD16
000edf 937f      	PUSH R23
000ee0 936f      	PUSH R22
000ee1 93ff      	PUSH R31
000ee2 93ef      	PUSH R30
000ee3 940e 1adb 	CALL SUBOPT_0x60
000ee5 91af      	POP  R26
000ee6 91bf      	POP  R27
000ee7 918f      	POP  R24
000ee8 919f      	POP  R25
000ee9 940e 1ae0 	CALL SUBOPT_0x61
000eeb 940e 1ac8 	CALL SUBOPT_0x5C
000eed cfc3      	RJMP _0x20400F5
                 _0x20400F6:
                 _0x20400F3:
000eee 2fe1      	MOV  R30,R17
000eef 940e 1dcb 	CALL __LOADLOCR4
000ef1 9628      	ADIW R28,8
000ef2 9508      	RET
                 ; .FEND
                 _check_fs_G102:
                 ; .FSTART _check_fs_G102
000ef3 940e 1d9c 	CALL __PUTPARD2
000ef5 81ec      	LDD  R30,Y+4
000ef6 81fd      	LDD  R31,Y+4+1
000ef7 81a1      	LDD  R26,Z+1
000ef8 93aa      	ST   -Y,R26
000ef9 81ed      	LDD  R30,Y+5
000efa 81fe      	LDD  R31,Y+5+1
000efb 96f2      	ADIW R30,50
000efc 93fa      	ST   -Y,R31
000efd 93ea      	ST   -Y,R30
                +
000efe 81eb     +LDD R30 , Y + 3
000eff 81fc     +LDD R31 , Y + 3 + 1
000f00 816d     +LDD R22 , Y + 3 + 2
000f01 817e     +LDD R23 , Y + 3 + 3
                 	__GETD1S 3
000f02 940e 1ae5 	CALL SUBOPT_0x62
000f04 f011      	BREQ _0x20400FE
000f05 e0e3      	LDI  R30,LOW(3)
000f06 c01c      	RJMP _0x20E000B
                 _0x20400FE:
000f07 81ec      	LDD  R30,Y+4
000f08 81fd      	LDD  R31,Y+4+1
000f09 940e 1aec 	CALL SUBOPT_0x63
000f0b f011      	BREQ _0x20400FF
000f0c e0e2      	LDI  R30,LOW(2)
000f0d c015      	RJMP _0x20E000B
                 _0x20400FF:
000f0e 81ac      	LDD  R26,Y+4
000f0f 81bd      	LDD  R27,Y+4+1
000f10 59a8      	SUBI R26,LOW(-104)
000f11 4fbf      	SBCI R27,HIGH(-104)
000f12 940e 1af6 	CALL SUBOPT_0x64
000f14 f411      	BRNE _0x2040100
000f15 e0e0      	LDI  R30,LOW(0)
000f16 c00c      	RJMP _0x20E000B
                 _0x2040100:
000f17 81ec      	LDD  R30,Y+4
000f18 81fd      	LDD  R31,Y+4+1
000f19 96f2      	ADIW R30,50
000f1a 5aee      	SUBI R30,LOW(-82)
000f1b 4fff      	SBCI R31,HIGH(-82)
000f1c 01df      	MOVW R26,R30
000f1d 940e 1af6 	CALL SUBOPT_0x64
000f1f f411      	BRNE _0x2040101
000f20 e0e0      	LDI  R30,LOW(0)
000f21 c001      	RJMP _0x20E000B
                 _0x2040101:
000f22 e0e1      	LDI  R30,LOW(1)
                 _0x20E000B:
000f23 9626      	ADIW R28,6
000f24 9508      	RET
                 ; .FEND
                 _chk_mounted:
                 ; .FSTART _chk_mounted
000f25 93aa      	ST   -Y,R26
000f26 9764      	SBIW R28,20
000f27 940e 1dc2 	CALL __SAVELOCR6
000f29 8dad      	LDD  R26,Y+29
000f2a 8dbe      	LDD  R27,Y+29+1
000f2b 940e 1d6a 	CALL __GETW1P
000f2d 87e8      	STD  Y+8,R30
000f2e 87f9      	STD  Y+8+1,R31
000f2f 85a8      	LDD  R26,Y+8
000f30 85b9      	LDD  R27,Y+8+1
000f31 91ec      	LD   R30,X
000f32 53e0      	SUBI R30,LOW(48)
000f33 2f0e      	MOV  R16,R30
000f34 300a      	CPI  R16,10
000f35 f420      	BRSH _0x2040103
000f36 9611      	ADIW R26,1
000f37 91ac      	LD   R26,X
000f38 33aa      	CPI  R26,LOW(0x3A)
000f39 f009      	BREQ _0x2040104
                 _0x2040103:
000f3a c00a      	RJMP _0x2040102
                 _0x2040104:
000f3b 85e8      	LDD  R30,Y+8
000f3c 85f9      	LDD  R31,Y+8+1
000f3d 9632      	ADIW R30,2
000f3e 87e8      	STD  Y+8,R30
000f3f 87f9      	STD  Y+8+1,R31
000f40 8dad      	LDD  R26,Y+29
000f41 8dbe      	LDD  R27,Y+29+1
000f42 93ed      	ST   X+,R30
000f43 93fc      	ST   X,R31
000f44 c002      	RJMP _0x2040105
                 _0x2040102:
000f45 9100 0736 	LDS  R16,_Drive_G102
                 _0x2040105:
000f47 3001      	CPI  R16,1
000f48 f010      	BRLO _0x2040106
000f49 e0eb      	LDI  R30,LOW(11)
000f4a c1c9      	RJMP _0x20E0009
                 _0x2040106:
000f4b 2fe0      	MOV  R30,R16
000f4c 940e 1b04 	CALL SUBOPT_0x65
000f4e 940e 1d6a 	CALL __GETW1P
000f50 83ee      	STD  Y+6,R30
000f51 83ff      	STD  Y+6+1,R31
000f52 8dab      	LDD  R26,Y+27
000f53 8dbc      	LDD  R27,Y+27+1
000f54 93ed      	ST   X+,R30
000f55 93fc      	ST   X,R31
000f56 9730      	SBIW R30,0
000f57 f411      	BRNE _0x2040107
000f58 e0ec      	LDI  R30,LOW(12)
000f59 c1ba      	RJMP _0x20E0009
                 _0x2040107:
000f5a 81ae      	LDD  R26,Y+6
000f5b 81bf      	LDD  R27,Y+6+1
000f5c 91ec      	LD   R30,X
000f5d 30e0      	CPI  R30,0
000f5e f089      	BREQ _0x2040108
000f5f 81ee      	LDD  R30,Y+6
000f60 81ff      	LDD  R31,Y+6+1
000f61 81a1      	LDD  R26,Z+1
000f62 940e 056f 	CALL _disk_status
000f64 2f5e      	MOV  R21,R30
000f65 fd50      	SBRC R21,0
000f66 c009      	RJMP _0x2040109
000f67 8dea      	LDD  R30,Y+26
000f68 30e0      	CPI  R30,0
000f69 f011      	BREQ _0x204010B
000f6a fd52      	SBRC R21,2
000f6b c001      	RJMP _0x204010C
                 _0x204010B:
000f6c c002      	RJMP _0x204010A
                 _0x204010C:
000f6d e0ea      	LDI  R30,LOW(10)
000f6e c1a5      	RJMP _0x20E0009
                 _0x204010A:
000f6f c1a3      	RJMP _0x20E000A
                 _0x2040109:
                 _0x2040108:
000f70 81ae      	LDD  R26,Y+6
000f71 81bf      	LDD  R27,Y+6+1
000f72 e0e0      	LDI  R30,LOW(0)
000f73 93ec      	ST   X,R30
000f74 2fe0      	MOV  R30,R16
                +
000f75 81ae     +LDD R26 , Y + 6
000f76 81bf     +LDD R27 , Y + 6 + 1
000f77 9611     +ADIW R26 , 1
000f78 93ec     +ST X , R30
                 	__PUTB1SNS 6,1
000f79 81ee      	LDD  R30,Y+6
000f7a 81ff      	LDD  R31,Y+6+1
000f7b 81a1      	LDD  R26,Z+1
000f7c 940e 04a3 	CALL _disk_initialize
000f7e 2f5e      	MOV  R21,R30
000f7f ff50      	SBRS R21,0
000f80 c002      	RJMP _0x204010D
000f81 e0e3      	LDI  R30,LOW(3)
000f82 c191      	RJMP _0x20E0009
                 _0x204010D:
000f83 8dea      	LDD  R30,Y+26
000f84 30e0      	CPI  R30,0
000f85 f011      	BREQ _0x204010F
000f86 fd52      	SBRC R21,2
000f87 c001      	RJMP _0x2040110
                 _0x204010F:
000f88 c002      	RJMP _0x204010E
                 _0x2040110:
000f89 e0ea      	LDI  R30,LOW(10)
000f8a c189      	RJMP _0x20E0009
                 _0x204010E:
000f8b 940e 1ace 	CALL SUBOPT_0x5D
000f8d 940e 1a15 	CALL SUBOPT_0x43
                +
000f8f 8fe8     +STD Y + 24 , R30
000f90 8ff9     +STD Y + 24 + 1 , R31
000f91 8f6a     +STD Y + 24 + 2 , R22
000f92 8f7b     +STD Y + 24 + 3 , R23
                 	__PUTD1S 24
000f93 01df      	MOVW R26,R30
000f94 01cb      	MOVW R24,R22
000f95 df5d      	RCALL _check_fs_G102
000f96 2f1e      	MOV  R17,R30
000f97 3011      	CPI  R17,1
000f98 f4c9      	BRNE _0x2040111
000f99 81ee      	LDD  R30,Y+6
000f9a 81ff      	LDD  R31,Y+6+1
000f9b 96f2      	ADIW R30,50
000f9c 54e2      	SUBI R30,LOW(-446)
000f9d 4ffe      	SBCI R31,HIGH(-446)
000f9e 019f      	MOVW R18,R30
000f9f 81e4      	LDD  R30,Z+4
000fa0 30e0      	CPI  R30,0
000fa1 f081      	BREQ _0x2040112
000fa2 01d9      	MOVW R26,R18
000fa3 9618      	ADIW R26,8
000fa4 940e 1d6e 	CALL __GETD1P
                +
000fa6 8bee     +STD Y + 22 , R30
000fa7 8bff     +STD Y + 22 + 1 , R31
000fa8 8f68     +STD Y + 22 + 2 , R22
000fa9 8f79     +STD Y + 22 + 3 , R23
                 	__PUTD1S 22
000faa 940e 1ace 	CALL SUBOPT_0x5D
                +
000fac 8da8     +LDD R26 , Y + 24
000fad 8db9     +LDD R27 , Y + 24 + 1
000fae 8d8a     +LDD R24 , Y + 24 + 2
000faf 8d9b     +LDD R25 , Y + 24 + 3
                 	__GETD2S 24
000fb0 df42      	RCALL _check_fs_G102
000fb1 2f1e      	MOV  R17,R30
                 _0x2040112:
                 _0x2040111:
000fb2 3013      	CPI  R17,3
000fb3 f411      	BRNE _0x2040113
000fb4 e0e1      	LDI  R30,LOW(1)
000fb5 c15e      	RJMP _0x20E0009
                 _0x2040113:
000fb6 3010      	CPI  R17,0
000fb7 f449      	BRNE _0x2040115
000fb8 81ae      	LDD  R26,Y+6
000fb9 81bf      	LDD  R27,Y+6+1
000fba 96dd      	ADIW R26,61
000fbb 940e 1d6a 	CALL __GETW1P
000fbd 30e0      	CPI  R30,LOW(0x200)
000fbe e0a2      	LDI  R26,HIGH(0x200)
000fbf 07fa      	CPC  R31,R26
000fc0 f011      	BREQ _0x2040114
                 _0x2040115:
000fc1 e0ed      	LDI  R30,LOW(13)
000fc2 c151      	RJMP _0x20E0009
                 _0x2040114:
000fc3 81ae      	LDD  R26,Y+6
000fc4 81bf      	LDD  R27,Y+6+1
000fc5 5ba8      	SUBI R26,LOW(-72)
000fc6 4fbf      	SBCI R27,HIGH(-72)
000fc7 940e 193e 	CALL SUBOPT_0x22
000fc9 940e 1b0c 	CALL SUBOPT_0x66
000fcb 940e 1a1e 	CALL SUBOPT_0x45
000fcd 940e 1dae 	CALL __CPD10
000fcf f441      	BRNE _0x2040117
000fd0 81ae      	LDD  R26,Y+6
000fd1 81bf      	LDD  R27,Y+6+1
000fd2 5aaa      	SUBI R26,LOW(-86)
000fd3 4fbf      	SBCI R27,HIGH(-86)
000fd4 940e 1d6e 	CALL __GETD1P
000fd6 940e 1b0c 	CALL SUBOPT_0x66
                 _0x2040117:
000fd8 940e 1a1e 	CALL SUBOPT_0x45
                +
000fda 81ae     +LDD R26 , Y + 6
000fdb 81bf     +LDD R27 , Y + 6 + 1
000fdc 965a     +ADIW R26 , 26
000fdd 940e 1d79+CALL __PUTDP1
                 	__PUTD1SNS 6,26
000fdf 81ee      	LDD  R30,Y+6
000fe0 81ff      	LDD  R31,Y+6+1
000fe1 5bee      	SUBI R30,LOW(-66)
000fe2 4fff      	SBCI R31,HIGH(-66)
000fe3 81e0      	LD   R30,Z
                +
000fe4 81ae     +LDD R26 , Y + 6
000fe5 81bf     +LDD R27 , Y + 6 + 1
000fe6 9613     +ADIW R26 , 3
000fe7 93ec     +ST X , R30
                 	__PUTB1SNS 6,3
000fe8 81ee      	LDD  R30,Y+6
000fe9 81ff      	LDD  R31,Y+6+1
000fea 81e3      	LDD  R30,Z+3
000feb e0f0      	LDI  R31,0
000fec 940e 19eb 	CALL SUBOPT_0x3B
000fee 940e 1ce2 	CALL __CWD1
000ff0 940e 1cf9 	CALL __MULD12U
000ff2 940e 1b0c 	CALL SUBOPT_0x66
000ff4 940e 1b11 	CALL SUBOPT_0x67
000ff6 940e 1b18 	CALL SUBOPT_0x68
                +
000ff8 81ae     +LDD R26 , Y + 6
000ff9 81bf     +LDD R27 , Y + 6 + 1
000ffa 9692     +ADIW R26 , 34
000ffb 940e 1d79+CALL __PUTDP1
                 	__PUTD1SNS 6,34
000ffd 81ee      	LDD  R30,Y+6
000ffe 81ff      	LDD  R31,Y+6+1
000fff ade7      	LDD  R30,Z+63
                +
001000 81ae     +LDD R26 , Y + 6
001001 81bf     +LDD R27 , Y + 6 + 1
001002 9612     +ADIW R26 , 2
001003 93ec     +ST X , R30
                 	__PUTB1SNS 6,2
001004 81ae      	LDD  R26,Y+6
001005 81bf      	LDD  R27,Y+6+1
001006 5bad      	SUBI R26,LOW(-67)
001007 4fbf      	SBCI R27,HIGH(-67)
001008 940e 1d6a 	CALL __GETW1P
                +
00100a 81ae     +LDD R26 , Y + 6
00100b 81bf     +LDD R27 , Y + 6 + 1
00100c 9618     +ADIW R26 , 8
00100d 93ed     +ST X + , R30
00100e 93fc     +ST X , R31
                 	__PUTW1SNS 6,8
00100f 81ae      	LDD  R26,Y+6
001010 81bf      	LDD  R27,Y+6+1
001011 5bab      	SUBI R26,LOW(-69)
001012 4fbf      	SBCI R27,HIGH(-69)
001013 940e 193e 	CALL SUBOPT_0x22
                +
001015 87ee     +STD Y + 14 , R30
001016 87ff     +STD Y + 14 + 1 , R31
001017 8b68     +STD Y + 14 + 2 , R22
001018 8b79     +STD Y + 14 + 3 , R23
                 	__PUTD1S 14
001019 940e 1dae 	CALL __CPD10
00101b f451      	BRNE _0x2040118
00101c 81ae      	LDD  R26,Y+6
00101d 81bf      	LDD  R27,Y+6+1
00101e 5aae      	SUBI R26,LOW(-82)
00101f 4fbf      	SBCI R27,HIGH(-82)
001020 940e 1d6e 	CALL __GETD1P
                +
001022 87ee     +STD Y + 14 , R30
001023 87ff     +STD Y + 14 + 1 , R31
001024 8b68     +STD Y + 14 + 2 , R22
001025 8b79     +STD Y + 14 + 3 , R23
                 	__PUTD1S 14
                 _0x2040118:
001026 940e 1b11 	CALL SUBOPT_0x67
001028 940e 194f 	CALL SUBOPT_0x25
00102a 2766      	CLR  R22
00102b 2777      	CLR  R23
00102c 940e 1a23 	CALL SUBOPT_0x46
00102e 940e 19eb 	CALL SUBOPT_0x3B
001030 940e 1c91 	CALL __SUBD12
001032 937f      	PUSH R23
001033 936f      	PUSH R22
001034 93ff      	PUSH R31
001035 93ef      	PUSH R30
001036 940e 1b1d 	CALL SUBOPT_0x69
001038 91af      	POP  R26
001039 91bf      	POP  R27
00103a 918f      	POP  R24
00103b 919f      	POP  R25
00103c 2766      	CLR  R22
00103d 2777      	CLR  R23
00103e 940e 1c96 	CALL __SUBD21
001040 81ee      	LDD  R30,Y+6
001041 81ff      	LDD  R31,Y+6+1
001042 81e2      	LDD  R30,Z+2
001043 e0f0      	LDI  R31,0
001044 940e 1ce2 	CALL __CWD1
001046 940e 1d37 	CALL __DIVD21U
                +
001048 5fee     +SUBI R30 , LOW ( - 2 )
001049 4fff     +SBCI R31 , HIGH ( - 2 )
00104a 4f6f     +SBCI R22 , BYTE3 ( - 2 )
00104b 4f7f     +SBCI R23 , BYTE4 ( - 2 )
                 	__ADDD1N 2
                +
00104c 87ea     +STD Y + 10 , R30
00104d 87fb     +STD Y + 10 + 1 , R31
00104e 876c     +STD Y + 10 + 2 , R22
00104f 877d     +STD Y + 10 + 3 , R23
                 	__PUTD1S 10
                +
001050 81ae     +LDD R26 , Y + 6
001051 81bf     +LDD R27 , Y + 6 + 1
001052 965e     +ADIW R26 , 30
001053 940e 1d79+CALL __PUTDP1
                 	__PUTD1SNS 6,30
001055 e011      	LDI  R17,LOW(1)
001056 940e 1972 	CALL SUBOPT_0x28
                +
001058 3fa7     +CPI R26 , LOW ( 0xFF7 )
001059 e0ef     +LDI R30 , HIGH ( 0xFF7 )
00105a 07be     +CPC R27 , R30
00105b e0e0     +LDI R30 , BYTE3 ( 0xFF7 )
00105c 078e     +CPC R24 , R30
00105d e0e0     +LDI R30 , BYTE4 ( 0xFF7 )
00105e 079e     +CPC R25 , R30
                 	__CPD2N 0xFF7
00105f f008      	BRLO _0x2040119
001060 e012      	LDI  R17,LOW(2)
                 _0x2040119:
001061 940e 1972 	CALL SUBOPT_0x28
                +
001063 3fa7     +CPI R26 , LOW ( 0xFFF7 )
001064 efef     +LDI R30 , HIGH ( 0xFFF7 )
001065 07be     +CPC R27 , R30
001066 e0e0     +LDI R30 , BYTE3 ( 0xFFF7 )
001067 078e     +CPC R24 , R30
001068 e0e0     +LDI R30 , BYTE4 ( 0xFFF7 )
001069 079e     +CPC R25 , R30
                 	__CPD2N 0xFFF7
00106a f008      	BRLO _0x204011A
00106b e013      	LDI  R17,LOW(3)
                 _0x204011A:
00106c 3013      	CPI  R17,3
00106d f439      	BRNE _0x204011B
00106e 81ae      	LDD  R26,Y+6
00106f 81bf      	LDD  R27,Y+6+1
001070 5aa2      	SUBI R26,LOW(-94)
001071 4fbf      	SBCI R27,HIGH(-94)
001072 940e 1d6e 	CALL __GETD1P
001074 c002      	RJMP _0x204027C
                 _0x204011B:
001075 940e 1b25 	CALL SUBOPT_0x6A
                 _0x204027C:
                +
001077 81ae     +LDD R26 , Y + 6
001078 81bf     +LDD R27 , Y + 6 + 1
001079 9696     +ADIW R26 , 38
00107a 940e 1d79+CALL __PUTDP1
                 	__PUTD1SNS 6,38
00107c 940e 1b25 	CALL SUBOPT_0x6A
00107e 937f      	PUSH R23
00107f 936f      	PUSH R22
001080 93ff      	PUSH R31
001081 93ef      	PUSH R30
001082 940e 1b1d 	CALL SUBOPT_0x69
001084 91af      	POP  R26
001085 91bf      	POP  R27
001086 918f      	POP  R24
001087 919f      	POP  R25
001088 940e 1a52 	CALL SUBOPT_0x4D
                +
00108a 81ae     +LDD R26 , Y + 6
00108b 81bf     +LDD R27 , Y + 6 + 1
00108c 969a     +ADIW R26 , 42
00108d 940e 1d79+CALL __PUTDP1
                 	__PUTD1SNS 6,42
00108f 81ae      	LDD  R26,Y+6
001090 81bf      	LDD  R27,Y+6+1
001091 961e      	ADIW R26,14
001092 940e 194a 	CALL SUBOPT_0x24
001094 940e 1d79 	CALL __PUTDP1
001096 81ae      	LDD  R26,Y+6
001097 81bf      	LDD  R27,Y+6+1
001098 9614      	ADIW R26,4
001099 e0e0      	LDI  R30,LOW(0)
00109a 93ec      	ST   X,R30
00109b 3013      	CPI  R17,3
00109c f009      	BREQ PC+2
00109d c05f      	RJMP _0x204011D
00109e 81ae      	LDD  R26,Y+6
00109f 81bf      	LDD  R27,Y+6+1
0010a0 9615      	ADIW R26,5
0010a1 93ec      	ST   X,R30
0010a2 81ae      	LDD  R26,Y+6
0010a3 81bf      	LDD  R27,Y+6+1
0010a4 59ae      	SUBI R26,LOW(-98)
0010a5 4fbf      	SBCI R27,HIGH(-98)
0010a6 940e 1d6a 	CALL __GETW1P
0010a8 940e 1b18 	CALL SUBOPT_0x68
                +
0010aa 81ae     +LDD R26 , Y + 6
0010ab 81bf     +LDD R27 , Y + 6 + 1
0010ac 9652     +ADIW R26 , 18
0010ad 940e 1d79+CALL __PUTDP1
                 	__PUTD1SNS 6,18
0010af 81ee      	LDD  R30,Y+6
0010b0 81ff      	LDD  R31,Y+6+1
0010b1 81a1      	LDD  R26,Z+1
0010b2 93aa      	ST   -Y,R26
0010b3 81ef      	LDD  R30,Y+7
0010b4 85f8      	LDD  R31,Y+7+1
0010b5 96f2      	ADIW R30,50
0010b6 93fa      	ST   -Y,R31
0010b7 93ea      	ST   -Y,R30
0010b8 85e9      	LDD  R30,Y+9
0010b9 85fa      	LDD  R31,Y+9+1
0010ba 940e 18e3 	CALL SUBOPT_0x17
0010bc 940e 0579 	CALL _disk_read
0010be 30e0      	CPI  R30,0
0010bf f511      	BRNE _0x204011F
0010c0 81ee      	LDD  R30,Y+6
0010c1 81ff      	LDD  R31,Y+6+1
0010c2 940e 1aec 	CALL SUBOPT_0x63
0010c4 f4e9      	BRNE _0x204011F
0010c5 81ae      	LDD  R26,Y+6
0010c6 81bf      	LDD  R27,Y+6+1
0010c7 96d2      	ADIW R26,50
0010c8 940e 1d6e 	CALL __GETD1P
                +
0010ca 35e2     +CPI R30 , LOW ( 0x41615252 )
0010cb e5a2     +LDI R26 , HIGH ( 0x41615252 )
0010cc 07fa     +CPC R31 , R26
0010cd e6a1     +LDI R26 , BYTE3 ( 0x41615252 )
0010ce 076a     +CPC R22 , R26
0010cf e4a1     +LDI R26 , BYTE4 ( 0x41615252 )
0010d0 077a     +CPC R23 , R26
                 	__CPD1N 0x41615252
0010d1 f481      	BRNE _0x204011F
0010d2 81ee      	LDD  R30,Y+6
0010d3 81ff      	LDD  R31,Y+6+1
0010d4 96f2      	ADIW R30,50
0010d5 51ec      	SUBI R30,LOW(-484)
0010d6 4ffe      	SBCI R31,HIGH(-484)
0010d7 01df      	MOVW R26,R30
0010d8 940e 1d6e 	CALL __GETD1P
                +
0010da 37e2     +CPI R30 , LOW ( 0x61417272 )
0010db e7a2     +LDI R26 , HIGH ( 0x61417272 )
0010dc 07fa     +CPC R31 , R26
0010dd e4a1     +LDI R26 , BYTE3 ( 0x61417272 )
0010de 076a     +CPC R22 , R26
0010df e6a1     +LDI R26 , BYTE4 ( 0x61417272 )
0010e0 077a     +CPC R23 , R26
                 	__CPD1N 0x61417272
0010e1 f009      	BREQ _0x2040120
                 _0x204011F:
0010e2 c01a      	RJMP _0x204011E
                 _0x2040120:
0010e3 81ee      	LDD  R30,Y+6
0010e4 81ff      	LDD  R31,Y+6+1
0010e5 96f2      	ADIW R30,50
0010e6 51e4      	SUBI R30,LOW(-492)
0010e7 4ffe      	SBCI R31,HIGH(-492)
0010e8 01df      	MOVW R26,R30
0010e9 940e 1d6e 	CALL __GETD1P
                +
0010eb 81ae     +LDD R26 , Y + 6
0010ec 81bf     +LDD R27 , Y + 6 + 1
0010ed 961a     +ADIW R26 , 10
0010ee 940e 1d79+CALL __PUTDP1
                 	__PUTD1SNS 6,10
0010f0 81ee      	LDD  R30,Y+6
0010f1 81ff      	LDD  R31,Y+6+1
0010f2 96f2      	ADIW R30,50
0010f3 51e8      	SUBI R30,LOW(-488)
0010f4 4ffe      	SBCI R31,HIGH(-488)
0010f5 01df      	MOVW R26,R30
0010f6 940e 1d6e 	CALL __GETD1P
                +
0010f8 81ae     +LDD R26 , Y + 6
0010f9 81bf     +LDD R27 , Y + 6 + 1
0010fa 961e     +ADIW R26 , 14
0010fb 940e 1d79+CALL __PUTDP1
                 	__PUTD1SNS 6,14
                 _0x204011E:
                 _0x204011D:
0010fd 81ae      	LDD  R26,Y+6
0010fe 81bf      	LDD  R27,Y+6+1
0010ff 931c      	ST   X,R17
001100 940e 18c4 	CALL SUBOPT_0x13
001102 81ae      	LDD  R26,Y+6
001103 81bf      	LDD  R27,Y+6+1
001104 9656      	ADIW R26,22
001105 940e 1ac4 	CALL SUBOPT_0x5B
001107 e3a4      	LDI  R26,LOW(_Fsid_G102)
001108 e0b7      	LDI  R27,HIGH(_Fsid_G102)
001109 91ed      	LD   R30,X+
00110a 91fd      	LD   R31,X+
00110b 9631      	ADIW R30,1
00110c 93fe      	ST   -X,R31
00110d 93ee      	ST   -X,R30
                +
00110e 81ae     +LDD R26 , Y + 6
00110f 81bf     +LDD R27 , Y + 6 + 1
001110 9616     +ADIW R26 , 6
001111 93ed     +ST X + , R30
001112 93fc     +ST X , R31
                 	__PUTW1SNS 6,6
                 _0x20E000A:
001113 e0e0      	LDI  R30,LOW(0)
                 _0x20E0009:
001114 940e 1dc9 	CALL __LOADLOCR6
001116 966f      	ADIW R28,31
001117 9508      	RET
                 ; .FEND
                 _validate_G102:
                 ; .FSTART _validate_G102
001118 93ba      	ST   -Y,R27
001119 93aa      	ST   -Y,R26
00111a 81ea      	LDD  R30,Y+2
00111b 81fb      	LDD  R31,Y+2+1
00111c 9730      	SBIW R30,0
00111d f071      	BREQ _0x2040122
00111e 81aa      	LDD  R26,Y+2
00111f 81bb      	LDD  R27,Y+2+1
001120 91ec      	LD   R30,X
001121 30e0      	CPI  R30,0
001122 f049      	BREQ _0x2040122
001123 81ea      	LDD  R30,Y+2
001124 81fb      	LDD  R31,Y+2+1
001125 81a6      	LDD  R26,Z+6
001126 81b7      	LDD  R27,Z+7
001127 81e8      	LD   R30,Y
001128 81f9      	LDD  R31,Y+1
001129 17ea      	CP   R30,R26
00112a 07fb      	CPC  R31,R27
00112b f011      	BREQ _0x2040121
                 _0x2040122:
00112c e0e9      	LDI  R30,LOW(9)
00112d c00a      	RJMP _0x20E0008
                 _0x2040121:
00112e 81ea      	LDD  R30,Y+2
00112f 81fb      	LDD  R31,Y+2+1
001130 81a1      	LDD  R26,Z+1
001131 940e 056f 	CALL _disk_status
001133 70e1      	ANDI R30,LOW(0x1)
001134 f011      	BREQ _0x2040124
001135 e0e3      	LDI  R30,LOW(3)
001136 c001      	RJMP _0x20E0008
                 _0x2040124:
001137 e0e0      	LDI  R30,LOW(0)
                 _0x20E0008:
001138 9624      	ADIW R28,4
001139 9508      	RET
                 ; .FEND
                 _f_mount:
                 ; .FSTART _f_mount
00113a 93ba      	ST   -Y,R27
00113b 93aa      	ST   -Y,R26
00113c 931a      	ST   -Y,R17
00113d 930a      	ST   -Y,R16
00113e 81ac      	LDD  R26,Y+4
00113f 30a1      	CPI  R26,LOW(0x1)
001140 f010      	BRLO _0x2040125
001141 e0eb      	LDI  R30,LOW(11)
001142 c020      	RJMP _0x20E0007
                 _0x2040125:
001143 81ec      	LDD  R30,Y+4
001144 940e 1b04 	CALL SUBOPT_0x65
001146 910d      	LD   R16,X+
001147 911c      	LD   R17,X
001148 2e00      	MOV  R0,R16
001149 2a01      	OR   R0,R17
00114a f019      	BREQ _0x2040126
00114b 01d8      	MOVW R26,R16
00114c e0e0      	LDI  R30,LOW(0)
00114d 93ec      	ST   X,R30
                 _0x2040126:
00114e 81ea      	LDD  R30,Y+2
00114f 81fb      	LDD  R31,Y+2+1
001150 9730      	SBIW R30,0
001151 f021      	BREQ _0x2040127
001152 81aa      	LDD  R26,Y+2
001153 81bb      	LDD  R27,Y+2+1
001154 e0e0      	LDI  R30,LOW(0)
001155 93ec      	ST   X,R30
                 _0x2040127:
001156 81ec      	LDD  R30,Y+4
001157 e3a2      	LDI  R26,LOW(_FatFs_G102)
001158 e0b7      	LDI  R27,HIGH(_FatFs_G102)
001159 e0f0      	LDI  R31,0
00115a 0fee      	LSL  R30
00115b 1fff      	ROL  R31
00115c 0fea      	ADD  R30,R26
00115d 1ffb      	ADC  R31,R27
00115e 81aa      	LDD  R26,Y+2
00115f 81bb      	LDD  R27,Y+2+1
001160 83a0      	STD  Z+0,R26
001161 83b1      	STD  Z+1,R27
001162 e0e0      	LDI  R30,LOW(0)
                 _0x20E0007:
001163 8119      	LDD  R17,Y+1
001164 8108      	LDD  R16,Y+0
001165 9625      	ADIW R28,5
001166 9508      	RET
                 ; .FEND
                 _f_open:
                 ; .FSTART _f_open
001167 93aa      	ST   -Y,R26
001168 97a2      	SBIW R28,34
001169 940e 1dc4 	CALL __SAVELOCR4
00116b a5a9      	LDD  R26,Y+41
00116c a5ba      	LDD  R27,Y+41+1
00116d 940e 1ad3 	CALL SUBOPT_0x5E
00116f a1ee      	LDD  R30,Y+38
001170 71ef      	ANDI R30,LOW(0x1F)
001171 a3ee      	STD  Y+38,R30
001172 01fe      	MOVW R30,R28
001173 96b7      	ADIW R30,39
001174 93fa      	ST   -Y,R31
001175 93ea      	ST   -Y,R30
001176 01fe      	MOVW R30,R28
001177 9672      	ADIW R30,18
001178 93fa      	ST   -Y,R31
001179 93ea      	ST   -Y,R30
00117a a5ea      	LDD  R30,Y+42
00117b 71ee      	ANDI R30,LOW(0x1E)
00117c 2fae      	MOV  R26,R30
00117d dda7      	RCALL _chk_mounted
00117e 2f1e      	MOV  R17,R30
00117f 3010      	CPI  R17,0
001180 f009      	BREQ _0x2040128
001181 c113      	RJMP _0x20E0006
                 _0x2040128:
001182 01fe      	MOVW R30,R28
001183 9634      	ADIW R30,4
001184 a3ec      	STD  Y+36,R30
001185 a3fd      	STD  Y+36+1,R31
001186 01fe      	MOVW R30,R28
001187 9670      	ADIW R30,16
001188 93fa      	ST   -Y,R31
001189 93ea      	ST   -Y,R30
00118a a5a9      	LDD  R26,Y+41
00118b a5ba      	LDD  R27,Y+41+1
00118c dce0      	RCALL _follow_path_G102
00118d 2f1e      	MOV  R17,R30
00118e a1ee      	LDD  R30,Y+38
00118f 71ec      	ANDI R30,LOW(0x1C)
001190 f409      	BRNE PC+2
001191 c096      	RJMP _0x2040129
001192 9728      	SBIW R28,8
001193 3010      	CPI  R17,0
001194 f089      	BREQ _0x204012A
001195 3014      	CPI  R17,4
001196 f421      	BRNE _0x204012B
001197 01de      	MOVW R26,R28
001198 9658      	ADIW R26,24
001199 dbe3      	RCALL _dir_register_G102
00119a 2f1e      	MOV  R17,R30
                 _0x204012B:
00119b 3010      	CPI  R17,0
00119c f019      	BREQ _0x204012C
00119d 2fe1      	MOV  R30,R17
00119e 9628      	ADIW R28,8
00119f c0f5      	RJMP _0x20E0006
                 _0x204012C:
0011a0 a5ee      	LDD  R30,Y+46
0011a1 60e8      	ORI  R30,8
0011a2 a7ee      	STD  Y+46,R30
                +
0011a3 a52a     +LDD R18 , Y + 42
0011a4 a53b     +LDD R19 , Y + 42 + 1
                 	__GETWRS 18,19,42
0011a5 c069      	RJMP _0x204012D
                 _0x204012A:
0011a6 a5ee      	LDD  R30,Y+46
0011a7 70e4      	ANDI R30,LOW(0x4)
0011a8 f019      	BREQ _0x204012E
0011a9 e0e8      	LDI  R30,LOW(8)
0011aa 9628      	ADIW R28,8
0011ab c0e9      	RJMP _0x20E0006
                 _0x204012E:
                +
0011ac a52a     +LDD R18 , Y + 42
0011ad a53b     +LDD R19 , Y + 42 + 1
                 	__GETWRS 18,19,42
0011ae 2e02      	MOV  R0,R18
0011af 2a03      	OR   R0,R19
0011b0 f021      	BREQ _0x2040130
0011b1 01f9      	MOVW R30,R18
0011b2 85e3      	LDD  R30,Z+11
0011b3 71e1      	ANDI R30,LOW(0x11)
0011b4 f019      	BREQ _0x204012F
                 _0x2040130:
0011b5 e0e7      	LDI  R30,LOW(7)
0011b6 9628      	ADIW R28,8
0011b7 c0dd      	RJMP _0x20E0006
                 _0x204012F:
0011b8 a5ee      	LDD  R30,Y+46
0011b9 70e8      	ANDI R30,LOW(0x8)
0011ba f409      	BRNE PC+2
0011bb c053      	RJMP _0x2040132
0011bc 940e 1ad8 	CALL SUBOPT_0x5F
0011be 940e 1cdd 	CALL __LSLD16
0011c0 937f      	PUSH R23
0011c1 936f      	PUSH R22
0011c2 93ff      	PUSH R31
0011c3 93ef      	PUSH R30
0011c4 940e 1adb 	CALL SUBOPT_0x60
0011c6 91af      	POP  R26
0011c7 91bf      	POP  R27
0011c8 918f      	POP  R24
0011c9 919f      	POP  R25
0011ca 940e 1ae0 	CALL SUBOPT_0x61
0011cc 940e 19d1 	CALL SUBOPT_0x35
0011ce 01f9      	MOVW R30,R18
0011cf 9674      	ADIW R30,20
0011d0 e0a0      	LDI  R26,LOW(0)
0011d1 e0b0      	LDI  R27,HIGH(0)
0011d2 83a0      	STD  Z+0,R26
0011d3 83b1      	STD  Z+1,R27
0011d4 01f9      	MOVW R30,R18
0011d5 967a      	ADIW R30,26
0011d6 83a0      	STD  Z+0,R26
0011d7 83b1      	STD  Z+1,R27
0011d8 01f9      	MOVW R30,R18
0011d9 967c      	ADIW R30,28
0011da 940e 19b4 	CALL SUBOPT_0x31
0011dc 940e 1d92 	CALL __PUTDZ20
0011de 8da8      	LDD  R26,Y+24
0011df 8db9      	LDD  R27,Y+24+1
0011e0 9614      	ADIW R26,4
0011e1 e0e1      	LDI  R30,LOW(1)
0011e2 93ec      	ST   X,R30
0011e3 8da8      	LDD  R26,Y+24
0011e4 8db9      	LDD  R27,Y+24+1
0011e5 969e      	ADIW R26,46
0011e6 940e 18fd 	CALL SUBOPT_0x1B
0011e8 940e 19de 	CALL SUBOPT_0x38
0011ea 940e 1dae 	CALL __CPD10
0011ec f0a9      	BREQ _0x2040133
0011ed 8de8      	LDD  R30,Y+24
0011ee 8df9      	LDD  R31,Y+24+1
0011ef 93fa      	ST   -Y,R31
0011f0 93ea      	ST   -Y,R30
0011f1 940e 1a2f 	CALL SUBOPT_0x48
0011f3 d885      	RCALL _remove_chain_G102
0011f4 2f1e      	MOV  R17,R30
0011f5 3010      	CPI  R17,0
0011f6 f011      	BREQ _0x2040134
0011f7 9628      	ADIW R28,8
0011f8 c09c      	RJMP _0x20E0006
                 _0x2040134:
0011f9 940e 19de 	CALL SUBOPT_0x38
0011fb 940e 1b2c 	CALL SUBOPT_0x6B
                +
0011fd 8da8     +LDD R26 , Y + 24
0011fe 8db9     +LDD R27 , Y + 24 + 1
0011ff 961a     +ADIW R26 , 10
001200 940e 1d79+CALL __PUTDP1
                 	__PUTD1SNS 24,10
                 _0x2040133:
001202 8de8      	LDD  R30,Y+24
001203 8df9      	LDD  R31,Y+24+1
001204 93fa      	ST   -Y,R31
001205 93ea      	ST   -Y,R30
001206 940e 186e 	CALL SUBOPT_0x8
001208 940e 0890 	CALL _move_window_G102
00120a 2f1e      	MOV  R17,R30
00120b 3010      	CPI  R17,0
00120c f011      	BREQ _0x2040135
00120d 9628      	ADIW R28,8
00120e c086      	RJMP _0x20E0006
                 _0x2040135:
                 _0x2040132:
                 _0x204012D:
00120f a5ee      	LDD  R30,Y+46
001210 70e8      	ANDI R30,LOW(0x8)
001211 f0a1      	BREQ _0x2040136
001212 01f9      	MOVW R30,R18
001213 963b      	ADIW R30,11
001214 e0a0      	LDI  R26,LOW(0)
001215 83a0      	STD  Z+0,R26
001216 940e 07f8 	CALL _get_fattime
001218 940e 1a72 	CALL SUBOPT_0x52
                +
00121a 01d9     +MOVW R26 , R18
00121b 961e     +ADIW R26 , 14
00121c 940e 1d79+CALL __PUTDP1
                 	__PUTD1RNS 18,14
00121e 8da8      	LDD  R26,Y+24
00121f 8db9      	LDD  R27,Y+24+1
001220 9614      	ADIW R26,4
001221 e0e1      	LDI  R30,LOW(1)
001222 93ec      	ST   X,R30
001223 a5ee      	LDD  R30,Y+46
001224 62e0      	ORI  R30,0x20
001225 a7ee      	STD  Y+46,R30
                 _0x2040136:
001226 9628      	ADIW R28,8
001227 c019      	RJMP _0x2040137
                 _0x2040129:
001228 3010      	CPI  R17,0
001229 f011      	BREQ _0x2040138
00122a 2fe1      	MOV  R30,R17
00122b c069      	RJMP _0x20E0006
                 _0x2040138:
                +
00122c a12a     +LDD R18 , Y + 34
00122d a13b     +LDD R19 , Y + 34 + 1
                 	__GETWRS 18,19,34
00122e 2e02      	MOV  R0,R18
00122f 2a03      	OR   R0,R19
001230 f021      	BREQ _0x204013A
001231 01f9      	MOVW R30,R18
001232 85e3      	LDD  R30,Z+11
001233 71e0      	ANDI R30,LOW(0x10)
001234 f011      	BREQ _0x2040139
                 _0x204013A:
001235 e0e4      	LDI  R30,LOW(4)
001236 c05e      	RJMP _0x20E0006
                 _0x2040139:
001237 a1ee      	LDD  R30,Y+38
001238 70e2      	ANDI R30,LOW(0x2)
001239 f021      	BREQ _0x204013D
00123a 01f9      	MOVW R30,R18
00123b 85e3      	LDD  R30,Z+11
00123c 70e1      	ANDI R30,LOW(0x1)
00123d f409      	BRNE _0x204013E
                 _0x204013D:
00123e c002      	RJMP _0x204013C
                 _0x204013E:
00123f e0e7      	LDI  R30,LOW(7)
001240 c054      	RJMP _0x20E0006
                 _0x204013C:
                 _0x2040137:
001241 89a8      	LDD  R26,Y+16
001242 89b9      	LDD  R27,Y+16+1
001243 969e      	ADIW R26,46
001244 940e 1d6e 	CALL __GETD1P
                +
001246 a5a9     +LDD R26 , Y + 41
001247 a5ba     +LDD R27 , Y + 41 + 1
001248 965a     +ADIW R26 , 26
001249 940e 1d79+CALL __PUTDP1
                 	__PUTD1SNS 41,26
00124b a1ea      	LDD  R30,Y+34
00124c a1fb      	LDD  R31,Y+34+1
                +
00124d a5a9     +LDD R26 , Y + 41
00124e a5ba     +LDD R27 , Y + 41 + 1
00124f 965e     +ADIW R26 , 30
001250 93ed     +ST X + , R30
001251 93fc     +ST X , R31
                 	__PUTW1SNS 41,30
001252 a1ee      	LDD  R30,Y+38
                +
001253 a5a9     +LDD R26 , Y + 41
001254 a5ba     +LDD R27 , Y + 41 + 1
001255 9614     +ADIW R26 , 4
001256 93ec     +ST X , R30
                 	__PUTB1SNS 41,4
001257 940e 1ad8 	CALL SUBOPT_0x5F
001259 940e 1cdd 	CALL __LSLD16
00125b 937f      	PUSH R23
00125c 936f      	PUSH R22
00125d 93ff      	PUSH R31
00125e 93ef      	PUSH R30
00125f 940e 1adb 	CALL SUBOPT_0x60
001261 91af      	POP  R26
001262 91bf      	POP  R27
001263 918f      	POP  R24
001264 919f      	POP  R25
001265 940e 1ae0 	CALL SUBOPT_0x61
                +
001267 a5a9     +LDD R26 , Y + 41
001268 a5ba     +LDD R27 , Y + 41 + 1
001269 961e     +ADIW R26 , 14
00126a 940e 1d79+CALL __PUTDP1
                 	__PUTD1SNS 41,14
00126c 01d9      	MOVW R26,R18
00126d 965c      	ADIW R26,28
00126e 940e 1d6e 	CALL __GETD1P
                +
001270 a5a9     +LDD R26 , Y + 41
001271 a5ba     +LDD R27 , Y + 41 + 1
001272 961a     +ADIW R26 , 10
001273 940e 1d79+CALL __PUTDP1
                 	__PUTD1SNS 41,10
001275 a5a9      	LDD  R26,Y+41
001276 a5ba      	LDD  R27,Y+41+1
001277 9616      	ADIW R26,6
001278 940e 1ac4 	CALL SUBOPT_0x5B
00127a a5a9      	LDD  R26,Y+41
00127b a5ba      	LDD  R27,Y+41+1
00127c 9615      	ADIW R26,5
00127d efef      	LDI  R30,LOW(255)
00127e 93ec      	ST   X,R30
00127f a5a9      	LDD  R26,Y+41
001280 a5ba      	LDD  R27,Y+41+1
001281 9656      	ADIW R26,22
001282 940e 1ac4 	CALL SUBOPT_0x5B
001284 89e8      	LDD  R30,Y+16
001285 89f9      	LDD  R31,Y+16+1
001286 a5a9      	LDD  R26,Y+41
001287 a5ba      	LDD  R27,Y+41+1
001288 93ed      	ST   X+,R30
001289 93fc      	ST   X,R31
00128a 89a8      	LDD  R26,Y+16
00128b 89b9      	LDD  R27,Y+16+1
00128c 9616      	ADIW R26,6
00128d 940e 1d6a 	CALL __GETW1P
                +
00128f a5a9     +LDD R26 , Y + 41
001290 a5ba     +LDD R27 , Y + 41 + 1
001291 9612     +ADIW R26 , 2
001292 93ed     +ST X + , R30
001293 93fc     +ST X , R31
                 	__PUTW1SNS 41,2
001294 e0e0      	LDI  R30,LOW(0)
                 _0x20E0006:
001295 940e 1dcb 	CALL __LOADLOCR4
001297 96ab      	ADIW R28,43
001298 9508      	RET
                 ; .FEND
                 _f_read:
                 ; .FSTART _f_read
001299 93ba      	ST   -Y,R27
00129a 93aa      	ST   -Y,R26
00129b 972e      	SBIW R28,14
00129c 940e 1dc2 	CALL __SAVELOCR6
00129e 8de8      	LDD  R30,Y+24
00129f 8df9      	LDD  R31,Y+24+1
0012a0 83ee      	STD  Y+6,R30
0012a1 83ff      	STD  Y+6+1,R31
0012a2 89ac      	LDD  R26,Y+20
0012a3 89bd      	LDD  R27,Y+20+1
0012a4 940e 1ad3 	CALL SUBOPT_0x5E
0012a6 940e 1b31 	CALL SUBOPT_0x6C
0012a8 940e 1b36 	CALL SUBOPT_0x6D
0012aa 940e 1b3b 	CALL SUBOPT_0x6E
0012ac f011      	BREQ _0x204013F
0012ad 2fe1      	MOV  R30,R17
0012ae c14c      	RJMP _0x20E0005
                 _0x204013F:
0012af 8dea      	LDD  R30,Y+26
0012b0 8dfb      	LDD  R31,Y+26+1
0012b1 81a4      	LDD  R26,Z+4
0012b2 78a0      	ANDI R26,LOW(0x80)
0012b3 f011      	BREQ _0x2040140
0012b4 e0e2      	LDI  R30,LOW(2)
0012b5 c145      	RJMP _0x20E0005
                 _0x2040140:
0012b6 8dea      	LDD  R30,Y+26
0012b7 8dfb      	LDD  R31,Y+26+1
0012b8 81a4      	LDD  R26,Z+4
0012b9 70a1      	ANDI R26,LOW(0x1)
0012ba f411      	BRNE _0x2040141
0012bb e0e7      	LDI  R30,LOW(7)
0012bc c13e      	RJMP _0x20E0005
                 _0x2040141:
0012bd 8dea      	LDD  R30,Y+26
0012be 8dfb      	LDD  R31,Y+26+1
                +
0012bf 85a2     +LDD R26 , Z + 10
0012c0 85b3     +LDD R27 , Z + 10 + 1
0012c1 8584     +LDD R24 , Z + 10 + 2
0012c2 8595     +LDD R25 , Z + 10 + 3
                 	__GETD2Z 10
0012c3 939f      	PUSH R25
0012c4 938f      	PUSH R24
0012c5 93bf      	PUSH R27
0012c6 93af      	PUSH R26
0012c7 940e 1b42 	CALL SUBOPT_0x6F
0012c9 91ef      	POP  R30
0012ca 91ff      	POP  R31
0012cb 916f      	POP  R22
0012cc 917f      	POP  R23
0012cd 940e 1c91 	CALL __SUBD12
0012cf 940e 1a06 	CALL SUBOPT_0x40
0012d1 940e 1a0b 	CALL SUBOPT_0x41
0012d3 89ae      	LDD  R26,Y+22
0012d4 89bf      	LDD  R27,Y+22+1
0012d5 2788      	CLR  R24
0012d6 2799      	CLR  R25
0012d7 940e 1db8 	CALL __CPD12
0012d9 f420      	BRSH _0x2040142
0012da 85e8      	LDD  R30,Y+8
0012db 85f9      	LDD  R31,Y+8+1
0012dc 8bee      	STD  Y+22,R30
0012dd 8bff      	STD  Y+22+1,R31
                 _0x2040142:
                 _0x2040144:
0012de 89ee      	LDD  R30,Y+22
0012df 89ff      	LDD  R31,Y+22+1
0012e0 9730      	SBIW R30,0
0012e1 f409      	BRNE PC+2
0012e2 c117      	RJMP _0x2040145
0012e3 940e 1b42 	CALL SUBOPT_0x6F
0012e5 940e 1b49 	CALL SUBOPT_0x70
0012e7 f009      	BREQ PC+2
0012e8 c0dd      	RJMP _0x2040146
0012e9 8dea      	LDD  R30,Y+26
0012ea 8dfb      	LDD  R31,Y+26+1
0012eb 8005      	LDD  R0,Z+5
0012ec 940e 1b31 	CALL SUBOPT_0x6C
0012ee 81e2      	LDD  R30,Z+2
0012ef 160e      	CP   R0,R30
0012f0 f1c8      	BRLO _0x2040147
0012f1 940e 1b42 	CALL SUBOPT_0x6F
0012f3 940e 1db2 	CALL __CPD02
0012f5 f431      	BRNE _0x2040148
0012f6 8daa      	LDD  R26,Y+26
0012f7 8dbb      	LDD  R27,Y+26+1
0012f8 961e      	ADIW R26,14
0012f9 940e 1d6e 	CALL __GETD1P
0012fb c008      	RJMP _0x2040149
                 _0x2040148:
0012fc 940e 1b31 	CALL SUBOPT_0x6C
0012fe 940e 1b36 	CALL SUBOPT_0x6D
001300 940e 1b4e 	CALL SUBOPT_0x71
001302 940e 095e 	CALL _get_fat
                 _0x2040149:
                +
001304 8be8     +STD Y + 16 , R30
001305 8bf9     +STD Y + 16 + 1 , R31
001306 8b6a     +STD Y + 16 + 2 , R22
001307 8b7b     +STD Y + 16 + 3 , R23
                 	__PUTD1S 16
                +
001308 89a8     +LDD R26 , Y + 16
001309 89b9     +LDD R27 , Y + 16 + 1
00130a 898a     +LDD R24 , Y + 16 + 2
00130b 899b     +LDD R25 , Y + 16 + 3
                 	__GETD2S 16
00130c 940e 18f0 	CALL SUBOPT_0x19
00130e f420      	BRSH _0x204014B
00130f 940e 1b53 	CALL SUBOPT_0x72
001311 e0e2      	LDI  R30,LOW(2)
001312 c0e8      	RJMP _0x20E0005
                 _0x204014B:
                +
001313 89a8     +LDD R26 , Y + 16
001314 89b9     +LDD R27 , Y + 16 + 1
001315 898a     +LDD R24 , Y + 16 + 2
001316 899b     +LDD R25 , Y + 16 + 3
                 	__GETD2S 16
001317 940e 19ac 	CALL SUBOPT_0x30
001319 f421      	BRNE _0x204014C
00131a 940e 1b53 	CALL SUBOPT_0x72
00131c e0e1      	LDI  R30,LOW(1)
00131d c0dd      	RJMP _0x20E0005
                 _0x204014C:
00131e 940e 19d4 	CALL SUBOPT_0x36
                +
001320 8daa     +LDD R26 , Y + 26
001321 8dbb     +LDD R27 , Y + 26 + 1
001322 9652     +ADIW R26 , 18
001323 940e 1d79+CALL __PUTDP1
                 	__PUTD1SNS 26,18
001325 8daa      	LDD  R26,Y+26
001326 8dbb      	LDD  R27,Y+26+1
001327 9615      	ADIW R26,5
001328 e0e0      	LDI  R30,LOW(0)
001329 93ec      	ST   X,R30
                 _0x2040147:
00132a 940e 1b31 	CALL SUBOPT_0x6C
00132c 940e 1b36 	CALL SUBOPT_0x6D
00132e 940e 1b4e 	CALL SUBOPT_0x71
001330 d85e      	RCALL _clust2sect
001331 940e 1b5a 	CALL SUBOPT_0x73
001333 940e 1a1a 	CALL SUBOPT_0x44
001335 f421      	BRNE _0x204014D
001336 940e 1b53 	CALL SUBOPT_0x72
001338 e0e2      	LDI  R30,LOW(2)
001339 c0c1      	RJMP _0x20E0005
                 _0x204014D:
00133a 940e 1b5f 	CALL SUBOPT_0x74
00133c 940e 19f7 	CALL SUBOPT_0x3D
00133e 940e 1b64 	CALL SUBOPT_0x75
001340 940e 1b5a 	CALL SUBOPT_0x73
001342 89ae      	LDD  R26,Y+22
001343 89bf      	LDD  R27,Y+22+1
001344 940e 1b69 	CALL SUBOPT_0x76
001346 f409      	BRNE PC+2
001347 c049      	RJMP _0x204014E
001348 940e 1b5f 	CALL SUBOPT_0x74
00134a 0fe4      	ADD  R30,R20
00134b 1ff5      	ADC  R31,R21
00134c 010f      	MOVW R0,R30
00134d 940e 1b31 	CALL SUBOPT_0x6C
00134f 81e2      	LDD  R30,Z+2
001350 01d0      	MOVW R26,R0
001351 e0f0      	LDI  R31,0
001352 17ea      	CP   R30,R26
001353 07fb      	CPC  R31,R27
001354 f450      	BRSH _0x204014F
001355 940e 1b31 	CALL SUBOPT_0x6C
001357 81e2      	LDD  R30,Z+2
001358 e0f0      	LDI  R31,0
001359 01df      	MOVW R26,R30
00135a 940e 1b5f 	CALL SUBOPT_0x74
00135c 1bae      	SUB  R26,R30
00135d 0bbf      	SBC  R27,R31
00135e 01ad      	MOVW R20,R26
                 _0x204014F:
00135f 940e 1b31 	CALL SUBOPT_0x6C
001361 940e 1b71 	CALL SUBOPT_0x77
                +
001363 85ef     +LDD R30 , Y + 15
001364 89f8     +LDD R31 , Y + 15 + 1
001365 8969     +LDD R22 , Y + 15 + 2
001366 897a     +LDD R23 , Y + 15 + 3
                 	__GETD1S 15
001367 940e 1d97 	CALL __PUTPARD1
001369 2fa4      	MOV  R26,R20
00136a 940e 0579 	CALL _disk_read
00136c 30e0      	CPI  R30,0
00136d f021      	BREQ _0x2040150
00136e 940e 1b53 	CALL SUBOPT_0x72
001370 e0e1      	LDI  R30,LOW(1)
001371 c089      	RJMP _0x20E0005
                 _0x2040150:
001372 8dea      	LDD  R30,Y+26
001373 8dfb      	LDD  R31,Y+26+1
001374 81a4      	LDD  R26,Z+4
001375 74a0      	ANDI R26,LOW(0x40)
001376 f029      	BREQ _0x2040152
001377 940e 1b78 	CALL SUBOPT_0x78
001379 940e 1b7f 	CALL SUBOPT_0x79
00137b f008      	BRLO _0x2040153
                 _0x2040152:
00137c c00f      	RJMP _0x2040151
                 _0x2040153:
00137d 940e 1b78 	CALL SUBOPT_0x78
00137f 940e 1b87 	CALL SUBOPT_0x7A
001381 81ae      	LDD  R26,Y+6
001382 81bf      	LDD  R27,Y+6+1
001383 2788      	CLR  R24
001384 2799      	CLR  R25
001385 0fea      	ADD  R30,R26
001386 1ffb      	ADC  R31,R27
001387 940e 1b36 	CALL SUBOPT_0x6D
001389 96b0      	ADIW R30,32
00138a 940e 1b90 	CALL SUBOPT_0x7B
                 _0x2040151:
00138c 8daa      	LDD  R26,Y+26
00138d 8dbb      	LDD  R27,Y+26+1
00138e 940e 1b96 	CALL SUBOPT_0x7C
001390 c055      	RJMP _0x2040143
                 _0x204014E:
001391 8dea      	LDD  R30,Y+26
001392 8dfb      	LDD  R31,Y+26+1
001393 81a4      	LDD  R26,Z+4
001394 74a0      	ANDI R26,LOW(0x40)
001395 f089      	BREQ _0x2040154
001396 940e 1b31 	CALL SUBOPT_0x6C
001398 940e 1ba1 	CALL SUBOPT_0x7D
00139a 8ded      	LDD  R30,Y+29
00139b 8dfe      	LDD  R31,Y+29+1
00139c 940e 1ba9 	CALL SUBOPT_0x7E
00139e f021      	BREQ _0x2040155
00139f 940e 1b53 	CALL SUBOPT_0x72
0013a1 e0e1      	LDI  R30,LOW(1)
0013a2 c058      	RJMP _0x20E0005
                 _0x2040155:
0013a3 8daa      	LDD  R26,Y+26
0013a4 8dbb      	LDD  R27,Y+26+1
0013a5 940e 1bb4 	CALL SUBOPT_0x7F
                 _0x2040154:
0013a7 940e 1b78 	CALL SUBOPT_0x78
0013a9 940e 1db8 	CALL __CPD12
0013ab f079      	BREQ _0x2040156
0013ac 940e 1b31 	CALL SUBOPT_0x6C
0013ae 940e 1ba1 	CALL SUBOPT_0x7D
                +
0013b0 85ef     +LDD R30 , Y + 15
0013b1 89f8     +LDD R31 , Y + 15 + 1
0013b2 8969     +LDD R22 , Y + 15 + 2
0013b3 897a     +LDD R23 , Y + 15 + 3
                 	__GETD1S 15
0013b4 940e 1ae5 	CALL SUBOPT_0x62
0013b6 f021      	BREQ _0x2040157
0013b7 940e 1b53 	CALL SUBOPT_0x72
0013b9 e0e1      	LDI  R30,LOW(1)
0013ba c040      	RJMP _0x20E0005
                 _0x2040157:
                 _0x2040156:
0013bb 940e 19fc 	CALL SUBOPT_0x3E
                +
0013bd 8daa     +LDD R26 , Y + 26
0013be 8dbb     +LDD R27 , Y + 26 + 1
0013bf 9656     +ADIW R26 , 22
0013c0 940e 1d79+CALL __PUTDP1
                 	__PUTD1SNS 26,22
0013c2 8daa      	LDD  R26,Y+26
0013c3 8dbb      	LDD  R27,Y+26+1
0013c4 940e 1bb9 	CALL SUBOPT_0x80
                 _0x2040146:
0013c6 8daa      	LDD  R26,Y+26
0013c7 8dbb      	LDD  R27,Y+26+1
0013c8 940e 1bbe 	CALL SUBOPT_0x81
0013ca e0a0      	LDI  R26,LOW(512)
0013cb e0b2      	LDI  R27,HIGH(512)
0013cc 1bae      	SUB  R26,R30
0013cd 0bbf      	SBC  R27,R31
0013ce 019d      	MOVW R18,R26
0013cf 89ee      	LDD  R30,Y+22
0013d0 89ff      	LDD  R31,Y+22+1
0013d1 17e2      	CP   R30,R18
0013d2 07f3      	CPC  R31,R19
0013d3 f410      	BRSH _0x2040158
                +
0013d4 892e     +LDD R18 , Y + 22
0013d5 893f     +LDD R19 , Y + 22 + 1
                 	__GETWRS 18,19,22
                 _0x2040158:
0013d6 940e 1ace 	CALL SUBOPT_0x5D
0013d8 8dac      	LDD  R26,Y+28
0013d9 8dbd      	LDD  R27,Y+28+1
0013da 940e 1bbe 	CALL SUBOPT_0x81
0013dc 8dac      	LDD  R26,Y+28
0013dd 8dbd      	LDD  R27,Y+28+1
0013de 9690      	ADIW R26,32
0013df 0fea      	ADD  R30,R26
0013e0 1ffb      	ADC  R31,R27
0013e1 93fa      	ST   -Y,R31
0013e2 93ea      	ST   -Y,R30
0013e3 01d9      	MOVW R26,R18
0013e4 940e 1813 	CALL _memcpy
                 _0x2040143:
0013e6 940e 1bc3 	CALL SUBOPT_0x82
0013e8 8dea      	LDD  R30,Y+26
0013e9 8dfb      	LDD  R31,Y+26+1
0013ea 940e 1bcb 	CALL SUBOPT_0x83
0013ec 01d0      	MOVW R26,R0
0013ed 940e 1d79 	CALL __PUTDP1
0013ef 89ac      	LDD  R26,Y+20
0013f0 89bd      	LDD  R27,Y+20+1
0013f1 940e 1bd4 	CALL SUBOPT_0x84
0013f3 89ee      	LDD  R30,Y+22
0013f4 89ff      	LDD  R31,Y+22+1
0013f5 1be2      	SUB  R30,R18
0013f6 0bf3      	SBC  R31,R19
0013f7 8bee      	STD  Y+22,R30
0013f8 8bff      	STD  Y+22+1,R31
0013f9 cee4      	RJMP _0x2040144
                 _0x2040145:
0013fa e0e0      	LDI  R30,LOW(0)
                 _0x20E0005:
0013fb 940e 1dc9 	CALL __LOADLOCR6
0013fd 966c      	ADIW R28,28
0013fe 9508      	RET
                 ; .FEND
                 _f_write:
                 ; .FSTART _f_write
0013ff 93ba      	ST   -Y,R27
001400 93aa      	ST   -Y,R26
001401 972a      	SBIW R28,10
001402 940e 1dc2 	CALL __SAVELOCR6
001404 89ec      	LDD  R30,Y+20
001405 89fd      	LDD  R31,Y+20+1
001406 83ee      	STD  Y+6,R30
001407 83ff      	STD  Y+6+1,R31
001408 89a8      	LDD  R26,Y+16
001409 89b9      	LDD  R27,Y+16+1
00140a 940e 1ad3 	CALL SUBOPT_0x5E
00140c 940e 1bdb 	CALL SUBOPT_0x85
00140e 940e 1be0 	CALL SUBOPT_0x86
001410 940e 1b3b 	CALL SUBOPT_0x6E
001412 f011      	BREQ _0x2040159
001413 2fe1      	MOV  R30,R17
001414 c189      	RJMP _0x20E0004
                 _0x2040159:
001415 89ee      	LDD  R30,Y+22
001416 89ff      	LDD  R31,Y+22+1
001417 81a4      	LDD  R26,Z+4
001418 78a0      	ANDI R26,LOW(0x80)
001419 f011      	BREQ _0x204015A
00141a e0e2      	LDI  R30,LOW(2)
00141b c182      	RJMP _0x20E0004
                 _0x204015A:
00141c 89ee      	LDD  R30,Y+22
00141d 89ff      	LDD  R31,Y+22+1
00141e 81a4      	LDD  R26,Z+4
00141f 70a2      	ANDI R26,LOW(0x2)
001420 f411      	BRNE _0x204015B
001421 e0e7      	LDI  R30,LOW(7)
001422 c17b      	RJMP _0x20E0004
                 _0x204015B:
001423 89ee      	LDD  R30,Y+22
001424 89ff      	LDD  R31,Y+22+1
                +
001425 85a2     +LDD R26 , Z + 10
001426 85b3     +LDD R27 , Z + 10 + 1
001427 8584     +LDD R24 , Z + 10 + 2
001428 8595     +LDD R25 , Z + 10 + 3
                 	__GETD2Z 10
001429 89ea      	LDD  R30,Y+18
00142a 89fb      	LDD  R31,Y+18+1
00142b 940e 1a52 	CALL SUBOPT_0x4D
00142d 937f      	PUSH R23
00142e 936f      	PUSH R22
00142f 93ff      	PUSH R31
001430 93ef      	PUSH R30
001431 940e 1be5 	CALL SUBOPT_0x87
001433 91af      	POP  R26
001434 91bf      	POP  R27
001435 918f      	POP  R24
001436 919f      	POP  R25
001437 940e 1dbd 	CALL __CPD21
001439 f418      	BRSH _0x204015C
00143a e0e0      	LDI  R30,LOW(0)
00143b 8bea      	STD  Y+18,R30
00143c 8beb      	STD  Y+18+1,R30
                 _0x204015C:
                 _0x204015E:
00143d 89ea      	LDD  R30,Y+18
00143e 89fb      	LDD  R31,Y+18+1
00143f 9730      	SBIW R30,0
001440 f409      	BRNE PC+2
001441 c142      	RJMP _0x204015F
001442 940e 1beb 	CALL SUBOPT_0x88
001444 940e 1b49 	CALL SUBOPT_0x70
001446 f009      	BREQ PC+2
001447 c100      	RJMP _0x2040160
001448 89ee      	LDD  R30,Y+22
001449 89ff      	LDD  R31,Y+22+1
00144a 8005      	LDD  R0,Z+5
00144b 940e 1bdb 	CALL SUBOPT_0x85
00144d 81e2      	LDD  R30,Z+2
00144e 160e      	CP   R0,R30
00144f f408      	BRSH PC+2
001450 c048      	RJMP _0x2040161
001451 89ae      	LDD  R26,Y+22
001452 89bf      	LDD  R27,Y+22+1
001453 9616      	ADIW R26,6
001454 940e 1a5f 	CALL SUBOPT_0x4F
001456 f4b1      	BRNE _0x2040162
001457 89ae      	LDD  R26,Y+22
001458 89bf      	LDD  R27,Y+22+1
001459 961e      	ADIW R26,14
00145a 940e 1d6e 	CALL __GETD1P
00145c 940e 1b5a 	CALL SUBOPT_0x73
00145e 940e 1a1a 	CALL SUBOPT_0x44
001460 f459      	BRNE _0x2040163
001461 940e 1bdb 	CALL SUBOPT_0x85
001463 940e 1bf2 	CALL SUBOPT_0x89
001465 940e 1b5a 	CALL SUBOPT_0x73
                +
001467 89ae     +LDD R26 , Y + 22
001468 89bf     +LDD R27 , Y + 22 + 1
001469 961e     +ADIW R26 , 14
00146a 940e 1d79+CALL __PUTDP1
                 	__PUTD1SNS 22,14
                 _0x2040163:
00146c c00a      	RJMP _0x2040164
                 _0x2040162:
00146d 940e 1bdb 	CALL SUBOPT_0x85
00146f 940e 1be0 	CALL SUBOPT_0x86
001471 940e 1b4e 	CALL SUBOPT_0x71
001473 940e 0ace 	CALL _create_chain_G102
001475 940e 1b5a 	CALL SUBOPT_0x73
                 _0x2040164:
001477 940e 1a1a 	CALL SUBOPT_0x44
001479 f409      	BRNE _0x2040165
00147a c109      	RJMP _0x204015F
                 _0x2040165:
00147b 940e 19f7 	CALL SUBOPT_0x3D
00147d 940e 19a4 	CALL SUBOPT_0x2F
00147f f421      	BRNE _0x2040166
001480 940e 1bf7 	CALL SUBOPT_0x8A
001482 e0e2      	LDI  R30,LOW(2)
001483 c11a      	RJMP _0x20E0004
                 _0x2040166:
001484 940e 19f7 	CALL SUBOPT_0x3D
001486 940e 19ac 	CALL SUBOPT_0x30
001488 f421      	BRNE _0x2040167
001489 940e 1bf7 	CALL SUBOPT_0x8A
00148b e0e1      	LDI  R30,LOW(1)
00148c c111      	RJMP _0x20E0004
                 _0x2040167:
00148d 940e 19fc 	CALL SUBOPT_0x3E
                +
00148f 89ae     +LDD R26 , Y + 22
001490 89bf     +LDD R27 , Y + 22 + 1
001491 9652     +ADIW R26 , 18
001492 940e 1d79+CALL __PUTDP1
                 	__PUTD1SNS 22,18
001494 89ae      	LDD  R26,Y+22
001495 89bf      	LDD  R27,Y+22+1
001496 9615      	ADIW R26,5
001497 e0e0      	LDI  R30,LOW(0)
001498 93ec      	ST   X,R30
                 _0x2040161:
001499 89ee      	LDD  R30,Y+22
00149a 89ff      	LDD  R31,Y+22+1
00149b 81a4      	LDD  R26,Z+4
00149c 74a0      	ANDI R26,LOW(0x40)
00149d f089      	BREQ _0x2040168
00149e 940e 1bdb 	CALL SUBOPT_0x85
0014a0 940e 1bfe 	CALL SUBOPT_0x8B
0014a2 8de9      	LDD  R30,Y+25
0014a3 8dfa      	LDD  R31,Y+25+1
0014a4 940e 1ba9 	CALL SUBOPT_0x7E
0014a6 f021      	BREQ _0x2040169
0014a7 940e 1bf7 	CALL SUBOPT_0x8A
0014a9 e0e1      	LDI  R30,LOW(1)
0014aa c0f3      	RJMP _0x20E0004
                 _0x2040169:
0014ab 89ae      	LDD  R26,Y+22
0014ac 89bf      	LDD  R27,Y+22+1
0014ad 940e 1bb4 	CALL SUBOPT_0x7F
                 _0x2040168:
0014af 940e 1bdb 	CALL SUBOPT_0x85
0014b1 940e 1be0 	CALL SUBOPT_0x86
0014b3 940e 1b4e 	CALL SUBOPT_0x71
0014b5 940e 0b8f 	CALL _clust2sect
0014b7 940e 1a06 	CALL SUBOPT_0x40
0014b9 940e 1a0b 	CALL SUBOPT_0x41
0014bb 940e 1dae 	CALL __CPD10
0014bd f421      	BRNE _0x204016A
0014be 940e 1bf7 	CALL SUBOPT_0x8A
0014c0 e0e2      	LDI  R30,LOW(2)
0014c1 c0dc      	RJMP _0x20E0004
                 _0x204016A:
0014c2 940e 1c06 	CALL SUBOPT_0x8C
0014c4 940e 18eb 	CALL SUBOPT_0x18
0014c6 940e 1b64 	CALL SUBOPT_0x75
0014c8 940e 1a06 	CALL SUBOPT_0x40
0014ca 89aa      	LDD  R26,Y+18
0014cb 89bb      	LDD  R27,Y+18+1
0014cc 940e 1b69 	CALL SUBOPT_0x76
0014ce f409      	BRNE PC+2
0014cf c04f      	RJMP _0x204016B
0014d0 940e 1c06 	CALL SUBOPT_0x8C
0014d2 0fe4      	ADD  R30,R20
0014d3 1ff5      	ADC  R31,R21
0014d4 010f      	MOVW R0,R30
0014d5 940e 1bdb 	CALL SUBOPT_0x85
0014d7 81e2      	LDD  R30,Z+2
0014d8 01d0      	MOVW R26,R0
0014d9 e0f0      	LDI  R31,0
0014da 17ea      	CP   R30,R26
0014db 07fb      	CPC  R31,R27
0014dc f450      	BRSH _0x204016C
0014dd 940e 1bdb 	CALL SUBOPT_0x85
0014df 81e2      	LDD  R30,Z+2
0014e0 e0f0      	LDI  R31,0
0014e1 01df      	MOVW R26,R30
0014e2 940e 1c06 	CALL SUBOPT_0x8C
0014e4 1bae      	SUB  R26,R30
0014e5 0bbf      	SBC  R27,R31
0014e6 01ad      	MOVW R20,R26
                 _0x204016C:
0014e7 940e 1bdb 	CALL SUBOPT_0x85
0014e9 940e 1b71 	CALL SUBOPT_0x77
                +
0014eb 85eb     +LDD R30 , Y + 11
0014ec 85fc     +LDD R31 , Y + 11 + 1
0014ed 856d     +LDD R22 , Y + 11 + 2
0014ee 857e     +LDD R23 , Y + 11 + 3
                 	__GETD1S 11
0014ef 940e 1d97 	CALL __PUTPARD1
0014f1 2fa4      	MOV  R26,R20
0014f2 940e 05dd 	CALL _disk_write
0014f4 30e0      	CPI  R30,0
0014f5 f021      	BREQ _0x204016D
0014f6 940e 1bf7 	CALL SUBOPT_0x8A
0014f8 e0e1      	LDI  R30,LOW(1)
0014f9 c0a4      	RJMP _0x20E0004
                 _0x204016D:
0014fa 940e 1c0b 	CALL SUBOPT_0x8D
0014fc 940e 1b7f 	CALL SUBOPT_0x79
0014fe f4d8      	BRSH _0x204016E
0014ff 89ee      	LDD  R30,Y+22
001500 89ff      	LDD  R31,Y+22+1
001501 96b0      	ADIW R30,32
001502 940e 1be0 	CALL SUBOPT_0x86
                +
001504 89a6     +LDD R26 , Z + 22
001505 89b7     +LDD R27 , Z + 22 + 1
001506 8d80     +LDD R24 , Z + 22 + 2
001507 8d91     +LDD R25 , Z + 22 + 3
                 	__GETD2Z 22
                +
001508 85ea     +LDD R30 , Y + 10
001509 85fb     +LDD R31 , Y + 10 + 1
00150a 856c     +LDD R22 , Y + 10 + 2
00150b 857d     +LDD R23 , Y + 10 + 3
                 	__GETD1S 10
00150c 940e 1b87 	CALL SUBOPT_0x7A
00150e 85a8      	LDD  R26,Y+8
00150f 85b9      	LDD  R27,Y+8+1
001510 2788      	CLR  R24
001511 2799      	CLR  R25
001512 0fea      	ADD  R30,R26
001513 1ffb      	ADC  R31,R27
001514 940e 1b90 	CALL SUBOPT_0x7B
001516 89ae      	LDD  R26,Y+22
001517 89bf      	LDD  R27,Y+22+1
001518 940e 1bb4 	CALL SUBOPT_0x7F
                 _0x204016E:
00151a 89ae      	LDD  R26,Y+22
00151b 89bf      	LDD  R27,Y+22+1
00151c 940e 1b96 	CALL SUBOPT_0x7C
00151e c051      	RJMP _0x204015D
                 _0x204016B:
00151f 940e 1c0b 	CALL SUBOPT_0x8D
001521 940e 1db8 	CALL __CPD12
001523 f0c9      	BREQ _0x204016F
001524 940e 1beb 	CALL SUBOPT_0x88
001526 010d      	MOVW R0,R26
001527 940e 1be5 	CALL SUBOPT_0x87
001529 01d0      	MOVW R26,R0
00152a 940e 1dbd 	CALL __CPD21
00152c f458      	BRSH _0x2040171
00152d 940e 1bdb 	CALL SUBOPT_0x85
00152f 940e 1bfe 	CALL SUBOPT_0x8B
                +
001531 85eb     +LDD R30 , Y + 11
001532 85fc     +LDD R31 , Y + 11 + 1
001533 856d     +LDD R22 , Y + 11 + 2
001534 857e     +LDD R23 , Y + 11 + 3
                 	__GETD1S 11
001535 940e 1ae5 	CALL SUBOPT_0x62
001537 f409      	BRNE _0x2040172
                 _0x2040171:
001538 c004      	RJMP _0x2040170
                 _0x2040172:
001539 940e 1bf7 	CALL SUBOPT_0x8A
00153b e0e1      	LDI  R30,LOW(1)
00153c c061      	RJMP _0x20E0004
                 _0x2040170:
                 _0x204016F:
00153d 940e 1a0b 	CALL SUBOPT_0x41
                +
00153f 89ae     +LDD R26 , Y + 22
001540 89bf     +LDD R27 , Y + 22 + 1
001541 9656     +ADIW R26 , 22
001542 940e 1d79+CALL __PUTDP1
                 	__PUTD1SNS 22,22
001544 89ae      	LDD  R26,Y+22
001545 89bf      	LDD  R27,Y+22+1
001546 940e 1bb9 	CALL SUBOPT_0x80
                 _0x2040160:
001548 89ae      	LDD  R26,Y+22
001549 89bf      	LDD  R27,Y+22+1
00154a 940e 1bbe 	CALL SUBOPT_0x81
00154c e0a0      	LDI  R26,LOW(512)
00154d e0b2      	LDI  R27,HIGH(512)
00154e 1bae      	SUB  R26,R30
00154f 0bbf      	SBC  R27,R31
001550 019d      	MOVW R18,R26
001551 89ea      	LDD  R30,Y+18
001552 89fb      	LDD  R31,Y+18+1
001553 17e2      	CP   R30,R18
001554 07f3      	CPC  R31,R19
001555 f410      	BRSH _0x2040173
                +
001556 892a     +LDD R18 , Y + 18
001557 893b     +LDD R19 , Y + 18 + 1
                 	__GETWRS 18,19,18
                 _0x2040173:
001558 89ae      	LDD  R26,Y+22
001559 89bf      	LDD  R27,Y+22+1
00155a 940e 1bbe 	CALL SUBOPT_0x81
00155c 89ae      	LDD  R26,Y+22
00155d 89bf      	LDD  R27,Y+22+1
00155e 9690      	ADIW R26,32
00155f 0fea      	ADD  R30,R26
001560 1ffb      	ADC  R31,R27
001561 93fa      	ST   -Y,R31
001562 93ea      	ST   -Y,R30
001563 85e8      	LDD  R30,Y+8
001564 85f9      	LDD  R31,Y+8+1
001565 93fa      	ST   -Y,R31
001566 93ea      	ST   -Y,R30
001567 01d9      	MOVW R26,R18
001568 940e 1813 	CALL _memcpy
00156a 89ae      	LDD  R26,Y+22
00156b 89bf      	LDD  R27,Y+22+1
00156c 9614      	ADIW R26,4
00156d 91ec      	LD   R30,X
00156e 64e0      	ORI  R30,0x40
00156f 93ec      	ST   X,R30
                 _0x204015D:
001570 940e 1bc3 	CALL SUBOPT_0x82
001572 89ee      	LDD  R30,Y+22
001573 89ff      	LDD  R31,Y+22+1
001574 940e 1bcb 	CALL SUBOPT_0x83
001576 01d0      	MOVW R26,R0
001577 940e 1d79 	CALL __PUTDP1
001579 89a8      	LDD  R26,Y+16
00157a 89b9      	LDD  R27,Y+16+1
00157b 940e 1bd4 	CALL SUBOPT_0x84
00157d 89ea      	LDD  R30,Y+18
00157e 89fb      	LDD  R31,Y+18+1
00157f 1be2      	SUB  R30,R18
001580 0bf3      	SBC  R31,R19
001581 8bea      	STD  Y+18,R30
001582 8bfb      	STD  Y+18+1,R31
001583 ceb9      	RJMP _0x204015E
                 _0x204015F:
001584 940e 1beb 	CALL SUBOPT_0x88
001586 010d      	MOVW R0,R26
001587 940e 1be5 	CALL SUBOPT_0x87
001589 01d0      	MOVW R26,R0
00158a 940e 1db8 	CALL __CPD12
00158c f450      	BRSH _0x2040174
00158d 89ae      	LDD  R26,Y+22
00158e 89bf      	LDD  R27,Y+22+1
00158f 9616      	ADIW R26,6
001590 940e 1d6e 	CALL __GETD1P
                +
001592 89ae     +LDD R26 , Y + 22
001593 89bf     +LDD R27 , Y + 22 + 1
001594 961a     +ADIW R26 , 10
001595 940e 1d79+CALL __PUTDP1
                 	__PUTD1SNS 22,10
                 _0x2040174:
001597 89ae      	LDD  R26,Y+22
001598 89bf      	LDD  R27,Y+22+1
001599 9614      	ADIW R26,4
00159a 91ec      	LD   R30,X
00159b 62e0      	ORI  R30,0x20
00159c 93ec      	ST   X,R30
00159d e0e0      	LDI  R30,LOW(0)
                 _0x20E0004:
00159e 940e 1dc9 	CALL __LOADLOCR6
0015a0 9668      	ADIW R28,24
0015a1 9508      	RET
                 ; .FEND
                 _f_sync:
                 ; .FSTART _f_sync
0015a2 93ba      	ST   -Y,R27
0015a3 93aa      	ST   -Y,R26
0015a4 9724      	SBIW R28,4
0015a5 940e 1dc4 	CALL __SAVELOCR4
0015a7 940e 1a34 	CALL SUBOPT_0x49
0015a9 93fa      	ST   -Y,R31
0015aa 93ea      	ST   -Y,R30
0015ab 85ea      	LDD  R30,Y+10
0015ac 85fb      	LDD  R31,Y+10+1
0015ad 940e 1b3b 	CALL SUBOPT_0x6E
0015af f009      	BREQ PC+2
0015b0 c070      	RJMP _0x2040175
0015b1 85e8      	LDD  R30,Y+8
0015b2 85f9      	LDD  R31,Y+8+1
0015b3 81a4      	LDD  R26,Z+4
0015b4 72a0      	ANDI R26,LOW(0x20)
0015b5 f409      	BRNE PC+2
0015b6 c06a      	RJMP _0x2040176
0015b7 81a4      	LDD  R26,Z+4
0015b8 74a0      	ANDI R26,LOW(0x40)
0015b9 f0a1      	BREQ _0x2040177
0015ba 940e 1a34 	CALL SUBOPT_0x49
0015bc 81e1      	LDD  R30,Z+1
0015bd 93ea      	ST   -Y,R30
0015be 85e9      	LDD  R30,Y+9
0015bf 85fa      	LDD  R31,Y+9+1
0015c0 96b0      	ADIW R30,32
0015c1 93fa      	ST   -Y,R31
0015c2 93ea      	ST   -Y,R30
0015c3 85eb      	LDD  R30,Y+11
0015c4 85fc      	LDD  R31,Y+11+1
0015c5 940e 1ba9 	CALL SUBOPT_0x7E
0015c7 f011      	BREQ _0x2040178
0015c8 e0e1      	LDI  R30,LOW(1)
0015c9 c058      	RJMP _0x20E0003
                 _0x2040178:
0015ca 85a8      	LDD  R26,Y+8
0015cb 85b9      	LDD  R27,Y+8+1
0015cc 940e 1bb4 	CALL SUBOPT_0x7F
                 _0x2040177:
0015ce 940e 1a34 	CALL SUBOPT_0x49
0015d0 93fa      	ST   -Y,R31
0015d1 93ea      	ST   -Y,R30
0015d2 85ea      	LDD  R30,Y+10
0015d3 85fb      	LDD  R31,Y+10+1
                +
0015d4 8da2     +LDD R26 , Z + 26
0015d5 8db3     +LDD R27 , Z + 26 + 1
0015d6 8d84     +LDD R24 , Z + 26 + 2
0015d7 8d95     +LDD R25 , Z + 26 + 3
                 	__GETD2Z 26
0015d8 940e 0890 	CALL _move_window_G102
0015da 2f1e      	MOV  R17,R30
0015db 3010      	CPI  R17,0
0015dc f009      	BREQ PC+2
0015dd c043      	RJMP _0x2040179
0015de 85a8      	LDD  R26,Y+8
0015df 85b9      	LDD  R27,Y+8+1
0015e0 965e      	ADIW R26,30
0015e1 912d      	LD   R18,X+
0015e2 913c      	LD   R19,X
0015e3 01d9      	MOVW R26,R18
0015e4 961b      	ADIW R26,11
0015e5 91ec      	LD   R30,X
0015e6 62e0      	ORI  R30,0x20
0015e7 93ec      	ST   X,R30
0015e8 85a8      	LDD  R26,Y+8
0015e9 85b9      	LDD  R27,Y+8+1
0015ea 961a      	ADIW R26,10
0015eb 940e 1d6e 	CALL __GETD1P
                +
0015ed 01d9     +MOVW R26 , R18
0015ee 965c     +ADIW R26 , 28
0015ef 940e 1d79+CALL __PUTDP1
                 	__PUTD1RNS 18,28
0015f1 85a8      	LDD  R26,Y+8
0015f2 85b9      	LDD  R27,Y+8+1
0015f3 961e      	ADIW R26,14
0015f4 940e 1d6a 	CALL __GETW1P
                +
0015f6 01d9     +MOVW R26 , R18
0015f7 965a     +ADIW R26 , 26
0015f8 93ed     +ST X + , R30
0015f9 93fc     +ST X , R31
                 	__PUTW1RNS 18,26
0015fa 85e8      	LDD  R30,Y+8
0015fb 85f9      	LDD  R31,Y+8+1
                +
0015fc 85a6     +LDD R26 , Z + 14
0015fd 85b7     +LDD R27 , Z + 14 + 1
0015fe 8980     +LDD R24 , Z + 14 + 2
0015ff 8991     +LDD R25 , Z + 14 + 3
                 	__GETD2Z 14
001600 01fd      	MOVW R30,R26
001601 01bc      	MOVW R22,R24
001602 940e 1cd8 	CALL __LSRD16
                +
001604 01d9     +MOVW R26 , R18
001605 9654     +ADIW R26 , 20
001606 93ed     +ST X + , R30
001607 93fc     +ST X , R31
                 	__PUTW1RNS 18,20
001608 940e 07f8 	CALL _get_fattime
00160a 940e 1a72 	CALL SUBOPT_0x52
                +
00160c 01d9     +MOVW R26 , R18
00160d 9656     +ADIW R26 , 22
00160e 940e 1d79+CALL __PUTDP1
                 	__PUTD1RNS 18,22
001610 85a8      	LDD  R26,Y+8
001611 85b9      	LDD  R27,Y+8+1
001612 9614      	ADIW R26,4
001613 91ec      	LD   R30,X
001614 7def      	ANDI R30,0xDF
001615 93ec      	ST   X,R30
001616 940e 1a34 	CALL SUBOPT_0x49
001618 9634      	ADIW R30,4
001619 e0a1      	LDI  R26,LOW(1)
00161a 83a0      	STD  Z+0,R26
00161b 940e 1a34 	CALL SUBOPT_0x49
00161d 01df      	MOVW R26,R30
00161e 940e 08f4 	CALL _sync_G102
001620 2f1e      	MOV  R17,R30
                 _0x2040179:
                 _0x2040176:
                 _0x2040175:
001621 2fe1      	MOV  R30,R17
                 _0x20E0003:
001622 940e 1dcb 	CALL __LOADLOCR4
001624 962a      	ADIW R28,10
001625 9508      	RET
                 ; .FEND
                 _f_lseek:
                 ; .FSTART _f_lseek
001626 940e 1d9c 	CALL __PUTPARD2
001628 9760      	SBIW R28,16
001629 931a      	ST   -Y,R17
00162a 940e 1c12 	CALL SUBOPT_0x8E
00162c 93fa      	ST   -Y,R31
00162d 93ea      	ST   -Y,R30
00162e 89ef      	LDD  R30,Y+23
00162f 8df8      	LDD  R31,Y+23+1
001630 940e 1b3b 	CALL SUBOPT_0x6E
001632 f009      	BREQ _0x2040183
001633 c194      	RJMP _0x20E0002
                 _0x2040183:
001634 89ed      	LDD  R30,Y+21
001635 89fe      	LDD  R31,Y+21+1
001636 81a4      	LDD  R26,Z+4
001637 78a0      	ANDI R26,LOW(0x80)
001638 f011      	BREQ _0x2040184
001639 e0e2      	LDI  R30,LOW(2)
00163a c18e      	RJMP _0x20E0001
                 _0x2040184:
00163b 940e 1c17 	CALL SUBOPT_0x8F
00163d 940e 1c1d 	CALL SUBOPT_0x90
00163f 940e 1db8 	CALL __CPD12
001641 f428      	BRSH _0x2040186
001642 89ed      	LDD  R30,Y+21
001643 89fe      	LDD  R31,Y+21+1
001644 81a4      	LDD  R26,Z+4
001645 70a2      	ANDI R26,LOW(0x2)
001646 f009      	BREQ _0x2040187
                 _0x2040186:
001647 c004      	RJMP _0x2040185
                 _0x2040187:
001648 940e 1c17 	CALL SUBOPT_0x8F
00164a 940e 1c22 	CALL SUBOPT_0x91
                 _0x2040185:
00164c 89ad      	LDD  R26,Y+21
00164d 89be      	LDD  R27,Y+21+1
00164e 9616      	ADIW R26,6
00164f 940e 1887 	CALL SUBOPT_0xC
001651 940e 1a15 	CALL SUBOPT_0x43
001653 940e 19cc 	CALL SUBOPT_0x34
001655 940e 1c27 	CALL SUBOPT_0x92
001657 9615      	ADIW R26,5
001658 efef      	LDI  R30,LOW(255)
001659 93ec      	ST   X,R30
00165a 940e 1c1d 	CALL SUBOPT_0x90
00165c 940e 1db2 	CALL __CPD02
00165e f008      	BRLO PC+2
00165f c111      	RJMP _0x2040188
001660 940e 1c12 	CALL SUBOPT_0x8E
001662 81e2      	LDD  R30,Z+2
001663 e0f0      	LDI  R31,0
001664 940e 1ce2 	CALL __CWD1
                +
001666 e0a0     +LDI R26 , LOW ( 0x200 )
001667 e0b2     +LDI R27 , HIGH ( 0x200 )
001668 e080     +LDI R24 , BYTE3 ( 0x200 )
001669 e090     +LDI R25 , BYTE4 ( 0x200 )
                 	__GETD2N 0x200
00166a 940e 1cf9 	CALL __MULD12U
                +
00166c 87e9     +STD Y + 9 , R30
00166d 87fa     +STD Y + 9 + 1 , R31
00166e 876b     +STD Y + 9 + 2 , R22
00166f 877c     +STD Y + 9 + 3 , R23
                 	__PUTD1S 9
001670 940e 1893 	CALL SUBOPT_0xE
001672 940e 1db2 	CALL __CPD02
001674 f498      	BRSH _0x204018A
001675 940e 1c2f 	CALL SUBOPT_0x93
001677 940e 1c34 	CALL SUBOPT_0x94
001679 937f      	PUSH R23
00167a 936f      	PUSH R22
00167b 93ff      	PUSH R31
00167c 93ef      	PUSH R30
00167d 940e 199f 	CALL SUBOPT_0x2E
00167f 940e 1c34 	CALL SUBOPT_0x94
001681 91af      	POP  R26
001682 91bf      	POP  R27
001683 918f      	POP  R24
001684 919f      	POP  R25
001685 940e 1dbd 	CALL __CPD21
001687 f408      	BRSH _0x204018B
                 _0x204018A:
001688 c021      	RJMP _0x2040189
                 _0x204018B:
001689 940e 199f 	CALL SUBOPT_0x2E
00168b 940e 1b2c 	CALL SUBOPT_0x6B
00168d 01df      	MOVW R26,R30
00168e 01cb      	MOVW R24,R22
00168f 940e 1c3e 	CALL SUBOPT_0x95
001691 940e 1b2c 	CALL SUBOPT_0x6B
001693 940e 1cec 	CALL __COMD1
001695 940e 1c9b 	CALL __ANDD12
001697 940e 1c27 	CALL SUBOPT_0x92
001699 9616      	ADIW R26,6
00169a 940e 1d6e 	CALL __GETD1P
00169c 940e 1c1d 	CALL SUBOPT_0x90
00169e 940e 1c96 	CALL __SUBD21
                +
0016a0 8ba9     +STD Y + 17 , R26
0016a1 8bba     +STD Y + 17 + 1 , R27
0016a2 8b8b     +STD Y + 17 + 2 , R24
0016a3 8b9c     +STD Y + 17 + 3 , R25
                 	__PUTD2S 17
0016a4 89ad      	LDD  R26,Y+21
0016a5 89be      	LDD  R27,Y+21+1
0016a6 9652      	ADIW R26,18
0016a7 940e 1c43 	CALL SUBOPT_0x96
0016a9 c02b      	RJMP _0x204018C
                 _0x2040189:
0016aa 89ad      	LDD  R26,Y+21
0016ab 89be      	LDD  R27,Y+21+1
0016ac 961e      	ADIW R26,14
0016ad 940e 1c43 	CALL SUBOPT_0x96
0016af 940e 1c4a 	CALL SUBOPT_0x97
0016b1 940e 1dae 	CALL __CPD10
0016b3 f4f9      	BRNE _0x204018D
0016b4 940e 1c12 	CALL SUBOPT_0x8E
0016b6 940e 1bf2 	CALL SUBOPT_0x89
0016b8 940e 1c4f 	CALL SUBOPT_0x98
0016ba 940e 1c54 	CALL SUBOPT_0x99
0016bc 940e 19a4 	CALL SUBOPT_0x2F
0016be f421      	BRNE _0x204018E
0016bf 940e 1c59 	CALL SUBOPT_0x9A
0016c1 e0e2      	LDI  R30,LOW(2)
0016c2 c106      	RJMP _0x20E0001
                 _0x204018E:
0016c3 940e 1c54 	CALL SUBOPT_0x99
0016c5 940e 19ac 	CALL SUBOPT_0x30
0016c7 f421      	BRNE _0x204018F
0016c8 940e 1c59 	CALL SUBOPT_0x9A
0016ca e0e1      	LDI  R30,LOW(1)
0016cb c0fd      	RJMP _0x20E0001
                 _0x204018F:
0016cc 940e 1c4a 	CALL SUBOPT_0x97
                +
0016ce 89ad     +LDD R26 , Y + 21
0016cf 89be     +LDD R27 , Y + 21 + 1
0016d0 961e     +ADIW R26 , 14
0016d1 940e 1d79+CALL __PUTDP1
                 	__PUTD1SNS 21,14
                 _0x204018D:
0016d3 940e 1c60 	CALL SUBOPT_0x9B
                 _0x204018C:
0016d5 940e 1c4a 	CALL SUBOPT_0x97
0016d7 940e 1dae 	CALL __CPD10
0016d9 f409      	BRNE PC+2
0016da c096      	RJMP _0x2040190
                 _0x2040191:
0016db 940e 1c3e 	CALL SUBOPT_0x95
0016dd 940e 1c1d 	CALL SUBOPT_0x90
0016df 940e 1db8 	CALL __CPD12
0016e1 f008      	BRLO PC+2
0016e2 c055      	RJMP _0x2040193
0016e3 89ed      	LDD  R30,Y+21
0016e4 89fe      	LDD  R31,Y+21+1
0016e5 81a4      	LDD  R26,Z+4
0016e6 70a2      	ANDI R26,LOW(0x2)
0016e7 f099      	BREQ _0x2040194
0016e8 940e 1c12 	CALL SUBOPT_0x8E
0016ea 940e 1c67 	CALL SUBOPT_0x9C
0016ec 940e 0ace 	CALL _create_chain_G102
0016ee 940e 1c4f 	CALL SUBOPT_0x98
0016f0 940e 1c4a 	CALL SUBOPT_0x97
0016f2 940e 1dae 	CALL __CPD10
0016f4 f429      	BRNE _0x2040195
0016f5 940e 1c3e 	CALL SUBOPT_0x95
0016f7 940e 1c22 	CALL SUBOPT_0x91
0016f9 c03e      	RJMP _0x2040193
                 _0x2040195:
0016fa c008      	RJMP _0x2040196
                 _0x2040194:
0016fb 940e 1c12 	CALL SUBOPT_0x8E
0016fd 940e 1c67 	CALL SUBOPT_0x9C
0016ff 940e 095e 	CALL _get_fat
001701 940e 1c4f 	CALL SUBOPT_0x98
                 _0x2040196:
001703 940e 1c54 	CALL SUBOPT_0x99
001705 940e 19ac 	CALL SUBOPT_0x30
001707 f421      	BRNE _0x2040197
001708 940e 1c59 	CALL SUBOPT_0x9A
00170a e0e1      	LDI  R30,LOW(1)
00170b c0bd      	RJMP _0x20E0001
                 _0x2040197:
00170c 940e 1c54 	CALL SUBOPT_0x99
00170e 940e 18f0 	CALL SUBOPT_0x19
001710 f058      	BRLO _0x2040199
001711 940e 1c12 	CALL SUBOPT_0x8E
001713 967e      	ADIW R30,30
001714 01df      	MOVW R26,R30
001715 940e 1d6e 	CALL __GETD1P
001717 940e 1c54 	CALL SUBOPT_0x99
001719 940e 1dbd 	CALL __CPD21
00171b f020      	BRLO _0x2040198
                 _0x2040199:
00171c 940e 1c59 	CALL SUBOPT_0x9A
00171e e0e2      	LDI  R30,LOW(2)
00171f c0a9      	RJMP _0x20E0001
                 _0x2040198:
001720 940e 1c60 	CALL SUBOPT_0x9B
001722 940e 1c6e 	CALL SUBOPT_0x9D
                +
001724 85a9     +LDD R26 , Y + 9
001725 85ba     +LDD R27 , Y + 9 + 1
001726 858b     +LDD R24 , Y + 9 + 2
001727 859c     +LDD R25 , Y + 9 + 3
                 	__GETD2S 9
001728 940e 1c87 	CALL __ADDD12
00172a 01d0      	MOVW R26,R0
00172b 940e 1d79 	CALL __PUTDP1
                +
00172d 85a9     +LDD R26 , Y + 9
00172e 85ba     +LDD R27 , Y + 9 + 1
00172f 858b     +LDD R24 , Y + 9 + 2
001730 859c     +LDD R25 , Y + 9 + 3
                 	__GETD2S 9
001731 940e 1c2f 	CALL SUBOPT_0x93
001733 940e 1c91 	CALL __SUBD12
001735 940e 1c22 	CALL SUBOPT_0x91
001737 cfa3      	RJMP _0x2040191
                 _0x2040193:
001738 940e 1c6e 	CALL SUBOPT_0x9D
00173a 940e 1c1d 	CALL SUBOPT_0x90
00173c 940e 1c87 	CALL __ADDD12
00173e 01d0      	MOVW R26,R0
00173f 940e 1d79 	CALL __PUTDP1
001741 940e 1c1d 	CALL SUBOPT_0x90
                +
001743 e0e0     +LDI R30 , LOW ( 0x200 )
001744 e0f2     +LDI R31 , HIGH ( 0x200 )
001745 e060     +LDI R22 , BYTE3 ( 0x200 )
001746 e070     +LDI R23 , BYTE4 ( 0x200 )
                 	__GETD1N 0x200
001747 940e 1d37 	CALL __DIVD21U
                +
001749 89ad     +LDD R26 , Y + 21
00174a 89be     +LDD R27 , Y + 21 + 1
00174b 9615     +ADIW R26 , 5
00174c 93ec     +ST X , R30
                 	__PUTB1SNS 21,5
00174d 940e 1c2f 	CALL SUBOPT_0x93
00174f 70f1      	ANDI R31,HIGH(0x1FF)
001750 9730      	SBIW R30,0
001751 f0f9      	BREQ _0x204019B
001752 940e 1c12 	CALL SUBOPT_0x8E
001754 940e 1c67 	CALL SUBOPT_0x9C
001756 940e 0b8f 	CALL _clust2sect
001758 940e 19cc 	CALL SUBOPT_0x34
00175a 940e 188e 	CALL SUBOPT_0xD
00175c 940e 1dae 	CALL __CPD10
00175e f421      	BRNE _0x204019C
00175f 940e 1c59 	CALL SUBOPT_0x9A
001761 e0e2      	LDI  R30,LOW(2)
001762 c066      	RJMP _0x20E0001
                 _0x204019C:
001763 89ed      	LDD  R30,Y+21
001764 89fe      	LDD  R31,Y+21+1
001765 81e5      	LDD  R30,Z+5
001766 e0f0      	LDI  R31,0
001767 940e 1991 	CALL SUBOPT_0x2C
001769 940e 1b64 	CALL SUBOPT_0x75
00176b 940e 19cc 	CALL SUBOPT_0x34
00176d 89ad      	LDD  R26,Y+21
00176e 89be      	LDD  R27,Y+21+1
00176f 940e 1bb9 	CALL SUBOPT_0x80
                 _0x204019B:
                 _0x2040190:
                 _0x2040188:
001771 940e 1c76 	CALL SUBOPT_0x9E
001773 940e 1b49 	CALL SUBOPT_0x70
001775 f051      	BREQ _0x204019E
001776 89ad      	LDD  R26,Y+21
001777 89be      	LDD  R27,Y+21+1
001778 9656      	ADIW R26,22
001779 940e 1d6e 	CALL __GETD1P
00177b 940e 1991 	CALL SUBOPT_0x2C
00177d 940e 1db8 	CALL __CPD12
00177f f409      	BRNE _0x204019F
                 _0x204019E:
001780 c02e      	RJMP _0x204019D
                 _0x204019F:
001781 89ed      	LDD  R30,Y+21
001782 89fe      	LDD  R31,Y+21+1
001783 81a4      	LDD  R26,Z+4
001784 74a0      	ANDI R26,LOW(0x40)
001785 f0a1      	BREQ _0x20401A0
001786 940e 1c12 	CALL SUBOPT_0x8E
001788 81e1      	LDD  R30,Z+1
001789 93ea      	ST   -Y,R30
00178a 89ee      	LDD  R30,Y+22
00178b 89ff      	LDD  R31,Y+22+1
00178c 96b0      	ADIW R30,32
00178d 940e 1be0 	CALL SUBOPT_0x86
00178f 940e 1ba9 	CALL SUBOPT_0x7E
001791 f021      	BREQ _0x20401A1
001792 940e 1c59 	CALL SUBOPT_0x9A
001794 e0e1      	LDI  R30,LOW(1)
001795 c033      	RJMP _0x20E0001
                 _0x20401A1:
001796 89ad      	LDD  R26,Y+21
001797 89be      	LDD  R27,Y+21+1
001798 940e 1bb4 	CALL SUBOPT_0x7F
                 _0x20401A0:
00179a 940e 1c12 	CALL SUBOPT_0x8E
00179c 81e1      	LDD  R30,Z+1
00179d 93ea      	ST   -Y,R30
00179e 89ee      	LDD  R30,Y+22
00179f 89ff      	LDD  R31,Y+22+1
0017a0 96b0      	ADIW R30,32
0017a1 940e 18af 	CALL SUBOPT_0x11
0017a3 f021      	BREQ _0x20401A2
0017a4 940e 1c59 	CALL SUBOPT_0x9A
0017a6 e0e1      	LDI  R30,LOW(1)
0017a7 c021      	RJMP _0x20E0001
                 _0x20401A2:
0017a8 940e 188e 	CALL SUBOPT_0xD
                +
0017aa 89ad     +LDD R26 , Y + 21
0017ab 89be     +LDD R27 , Y + 21 + 1
0017ac 9656     +ADIW R26 , 22
0017ad 940e 1d79+CALL __PUTDP1
                 	__PUTD1SNS 21,22
                 _0x204019D:
0017af 940e 1c76 	CALL SUBOPT_0x9E
0017b1 010d      	MOVW R0,R26
0017b2 940e 1c17 	CALL SUBOPT_0x8F
0017b4 01d0      	MOVW R26,R0
0017b5 940e 1db8 	CALL __CPD12
0017b7 f480      	BRSH _0x20401A3
0017b8 89ad      	LDD  R26,Y+21
0017b9 89be      	LDD  R27,Y+21+1
0017ba 9616      	ADIW R26,6
0017bb 940e 1d6e 	CALL __GETD1P
                +
0017bd 89ad     +LDD R26 , Y + 21
0017be 89be     +LDD R27 , Y + 21 + 1
0017bf 961a     +ADIW R26 , 10
0017c0 940e 1d79+CALL __PUTDP1
                 	__PUTD1SNS 21,10
0017c2 89ad      	LDD  R26,Y+21
0017c3 89be      	LDD  R27,Y+21+1
0017c4 9614      	ADIW R26,4
0017c5 91ec      	LD   R30,X
0017c6 62e0      	ORI  R30,0x20
0017c7 93ec      	ST   X,R30
                 _0x20401A3:
                 _0x20E0002:
0017c8 2fe1      	MOV  R30,R17
                 _0x20E0001:
0017c9 8118      	LDD  R17,Y+0
0017ca 9667      	ADIW R28,23
0017cb 9508      	RET
                 ; .FEND
                 
                 	.CSEG
                 _itoa:
                 ; .FSTART _itoa
0017cc 93ba      	ST   -Y,R27
0017cd 93aa      	ST   -Y,R26
0017ce 91a9          ld   r26,y+
0017cf 91b9          ld   r27,y+
0017d0 91e9          ld   r30,y+
0017d1 91f9          ld   r31,y+
0017d2 9630          adiw r30,0
0017d3 f42a          brpl __itoa0
0017d4 95e0          com  r30
0017d5 95f0          com  r31
0017d6 9631          adiw r30,1
0017d7 e26d          ldi  r22,'-'
0017d8 936d          st   x+,r22
                 __itoa0:
0017d9 94e8          clt
0017da e180          ldi  r24,low(10000)
0017db e297          ldi  r25,high(10000)
0017dc d00d          rcall __itoa1
0017dd ee88          ldi  r24,low(1000)
0017de e093          ldi  r25,high(1000)
0017df d00a          rcall __itoa1
0017e0 e684          ldi  r24,100
0017e1 2799          clr  r25
0017e2 d007          rcall __itoa1
0017e3 e08a          ldi  r24,10
0017e4 d005          rcall __itoa1
0017e5 2f6e          mov  r22,r30
0017e6 d010          rcall __itoa5
0017e7 2766          clr  r22
0017e8 936c          st   x,r22
0017e9 9508          ret
                 
                 __itoa1:
0017ea 2766          clr	 r22
                 __itoa2:
0017eb 17e8          cp   r30,r24
0017ec 07f9          cpc  r31,r25
0017ed f020          brlo __itoa3
0017ee 9563          inc  r22
0017ef 1be8          sub  r30,r24
0017f0 0bf9          sbc  r31,r25
0017f1 f7c9          brne __itoa2
                 __itoa3:
0017f2 2366          tst  r22
0017f3 f411          brne __itoa4
0017f4 f016          brts __itoa5
0017f5 9508          ret
                 __itoa4:
0017f6 9468          set
                 __itoa5:
0017f7 5d60          subi r22,-0x30
0017f8 936d          st   x+,r22
0017f9 9508          ret
                 ; .FEND
                 
                 	.DSEG
                 
                 	.CSEG
                 
                 	.CSEG
                 _memcmp:
                 ; .FSTART _memcmp
0017fa 93ba      	ST   -Y,R27
0017fb 93aa      	ST   -Y,R26
0017fc 2766          clr  r22
0017fd 2777          clr  r23
0017fe 9189          ld   r24,y+
0017ff 9199          ld   r25,y+
001800 91e9          ld   r30,y+
001801 91f9          ld   r31,y+
001802 91a9          ld   r26,y+
001803 91b9          ld   r27,y+
                 memcmp0:
001804 9600          adiw r24,0
001805 f029          breq memcmp1
001806 9701          sbiw r24,1
001807 916d          ld   r22,x+
001808 9171          ld   r23,z+
001809 1767          cp   r22,r23
00180a f3c9          breq memcmp0
                 memcmp1:
00180b 1b67          sub  r22,r23
00180c f410          brcc memcmp2
00180d efef          ldi  r30,-1
00180e 9508          ret
                 memcmp2:
00180f e0e0          ldi  r30,0
001810 f009          breq memcmp3
001811 95e3          inc  r30
                 memcmp3:
001812 9508          ret
                 ; .FEND
                 _memcpy:
                 ; .FSTART _memcpy
001813 93ba      	ST   -Y,R27
001814 93aa      	ST   -Y,R26
001815 8199          ldd  r25,y+1
001816 8188          ld   r24,y
001817 9600          adiw r24,0
001818 f041          breq memcpy1
001819 81bd          ldd  r27,y+5
00181a 81ac          ldd  r26,y+4
00181b 81fb          ldd  r31,y+3
00181c 81ea          ldd  r30,y+2
                 memcpy0:
00181d 9161          ld   r22,z+
00181e 936d          st   x+,r22
00181f 9701          sbiw r24,1
001820 f7e1          brne memcpy0
                 memcpy1:
001821 81fd          ldd  r31,y+5
001822 81ec          ldd  r30,y+4
001823 9626      	ADIW R28,6
001824 9508      	RET
                 ; .FEND
                 _memset:
                 ; .FSTART _memset
001825 93ba      	ST   -Y,R27
001826 93aa      	ST   -Y,R26
001827 81b9          ldd  r27,y+1
001828 81a8          ld   r26,y
001829 9610          adiw r26,0
00182a f031          breq memset1
00182b 81fc          ldd  r31,y+4
00182c 81eb          ldd  r30,y+3
00182d 816a          ldd  r22,y+2
                 memset0:
00182e 9361          st   z+,r22
00182f 9711          sbiw r26,1
001830 f7e9          brne memset0
                 memset1:
001831 81eb          ldd  r30,y+3
001832 81fc          ldd  r31,y+4
001833 9625      	ADIW R28,5
001834 9508      	RET
                 ; .FEND
                 
                 	.CSEG
                 
                 	.CSEG
                 
                 	.DSEG
                 _prtc_get_time:
00027a           	.BYTE 0x2
                 _prtc_get_date:
00027c           	.BYTE 0x2
                 _fat:
00027e           	.BYTE 0x232
                 _file:
0004b0           	.BYTE 0x220
                 _path:
0006d0           	.BYTE 0xD
                 _text1:
0006dd           	.BYTE 0x34
                 _text2:
000711           	.BYTE 0x19
                 __base_y_G100:
00072a           	.BYTE 0x4
                 _status_G101:
00072e           	.BYTE 0x1
                 _timer1_G101:
00072f           	.BYTE 0x1
                 _timer2_G101:
000730           	.BYTE 0x1
                 _card_type_G101:
000731           	.BYTE 0x1
                 _FatFs_G102:
000732           	.BYTE 0x2
                 _Fsid_G102:
000734           	.BYTE 0x2
                 _Drive_G102:
000736           	.BYTE 0x1
                 __seed_G103:
000737           	.BYTE 0x4
                 
                 	.CSEG
                 ;OPTIMIZER ADDED SUBROUTINE, CALLED 2 TIMES, CODE SIZE REDUCTION:3 WORDS
                 SUBOPT_0x0:
001835 ebe0      	LDI  R30,LOW(_file)
001836 e0f4      	LDI  R31,HIGH(_file)
001837 93fa      	ST   -Y,R31
001838 93ea      	ST   -Y,R30
001839 ede0      	LDI  R30,LOW(_path)
00183a e0f6      	LDI  R31,HIGH(_path)
00183b 93fa      	ST   -Y,R31
00183c 93ea      	ST   -Y,R30
00183d 9508      	RET
                 
                 ;OPTIMIZER ADDED SUBROUTINE, CALLED 4 TIMES, CODE SIZE REDUCTION:3 WORDS
                 SUBOPT_0x1:
00183e 2da5      	MOV  R26,R5
00183f 27bb      	CLR  R27
001840 940c 0211 	JMP  _error
                 
                 ;OPTIMIZER ADDED SUBROUTINE, CALLED 3 TIMES, CODE SIZE REDUCTION:1 WORDS
                 SUBOPT_0x2:
001842 93e0 06dd 	STS  _text1,R30
001844 940c 0226 	JMP  _write_to_file
                 
                 ;OPTIMIZER ADDED SUBROUTINE, CALLED 2 TIMES, CODE SIZE REDUCTION:5 WORDS
                 SUBOPT_0x3:
001846 93fa      	ST   -Y,R31
001847 93ea      	ST   -Y,R30
001848 01de      	MOVW R26,R28
001849 961b      	ADIW R26,11
00184a 940e 17cc 	CALL _itoa
00184c 01de      	MOVW R26,R28
00184d 9619      	ADIW R26,9
00184e 940c 0322 	JMP  _lcd_puts
                 
                 ;OPTIMIZER ADDED SUBROUTINE, CALLED 3 TIMES, CODE SIZE REDUCTION:9 WORDS
                 SUBOPT_0x4:
001850 940e 0322 	CALL _lcd_puts
001852 e9a0      	LDI  R26,LOW(400)
001853 e0b1      	LDI  R27,HIGH(400)
001854 940e 1c7d 	CALL _delay_ms
001856 940c 0301 	JMP  _lcd_clear
                 
                 ;OPTIMIZER ADDED SUBROUTINE, CALLED 2 TIMES, CODE SIZE REDUCTION:2 WORDS
                 SUBOPT_0x5:
001858 01d8      	MOVW R26,R16
001859 940e 1ce7 	CALL __CWD2
00185b 940e 0238 	CALL _seek_in_file
                +
00185d e000     +LDI R16 , LOW ( 0 )
00185e e010     +LDI R17 , HIGH ( 0 )
                 	__GETWRN 16,17,0
00185f 9508      	RET
                 
                 ;OPTIMIZER ADDED SUBROUTINE, CALLED 3 TIMES, CODE SIZE REDUCTION:1 WORDS
                 SUBOPT_0x6:
001860 ebe0      	LDI  R30,LOW(_file)
001861 e0f4      	LDI  R31,HIGH(_file)
001862 93fa      	ST   -Y,R31
001863 93ea      	ST   -Y,R30
001864 9508      	RET
                 
                 ;OPTIMIZER ADDED SUBROUTINE, CALLED 2 TIMES, CODE SIZE REDUCTION:3 WORDS
                 SUBOPT_0x7:
001865 93fa      	ST   -Y,R31
001866 93ea      	ST   -Y,R30
001867 e0e1      	LDI  R30,LOW(1)
001868 e0f0      	LDI  R31,HIGH(1)
001869 93fa      	ST   -Y,R31
00186a 93ea      	ST   -Y,R30
00186b e0a6      	LDI  R26,LOW(6)
00186c e0b0      	LDI  R27,HIGH(6)
00186d 9508      	RET
                 
                 ;OPTIMIZER ADDED SUBROUTINE, CALLED 8 TIMES, CODE SIZE REDUCTION:11 WORDS
                 SUBOPT_0x8:
                +
00186e 81ae     +LDD R26 , Y + 6
00186f 81bf     +LDD R27 , Y + 6 + 1
001870 8588     +LDD R24 , Y + 6 + 2
001871 8599     +LDD R25 , Y + 6 + 3
                 	__GETD2S 6
001872 9508      	RET
                 
                 ;OPTIMIZER ADDED SUBROUTINE, CALLED 2 TIMES, CODE SIZE REDUCTION:1 WORDS
                 SUBOPT_0x9:
001873 940e 02e8 	CALL __lcd_write_data
001875 e0a3      	LDI  R26,LOW(3)
001876 e0b0      	LDI  R27,0
001877 940c 1c7d 	JMP  _delay_ms
                 
                 ;OPTIMIZER ADDED SUBROUTINE, CALLED 3 TIMES, CODE SIZE REDUCTION:7 WORDS
                 SUBOPT_0xA:
001879 e3a0      	LDI  R26,LOW(48)
00187a 940e 02d3 	CALL __lcd_write_nibble_G100
                +
00187c ec88     +LDI R24 , LOW ( 200 )
00187d e090     +LDI R25 , HIGH ( 200 )
                +__DELAY_USW_LOOP :
00187e 9701     +SBIW R24 , 1
00187f f7f1     +BRNE __DELAY_USW_LOOP
                 	__DELAY_USW 200
001880 9508      	RET
                 
                 ;OPTIMIZER ADDED SUBROUTINE, CALLED 3 TIMES, CODE SIZE REDUCTION:3 WORDS
                 SUBOPT_0xB:
001881 e0f0      	LDI  R31,0
001882 940e 1ce2 	CALL __CWD1
001884 01df      	MOVW R26,R30
001885 01cb      	MOVW R24,R22
001886 9508      	RET
                 
                 ;OPTIMIZER ADDED SUBROUTINE, CALLED 2 TIMES, CODE SIZE REDUCTION:1 WORDS
                 SUBOPT_0xC:
001887 940e 1d6e 	CALL __GETD1P
                +
001889 83e9     +STD Y + 1 , R30
00188a 83fa     +STD Y + 1 + 1 , R31
00188b 836b     +STD Y + 1 + 2 , R22
00188c 837c     +STD Y + 1 + 3 , R23
                 	__PUTD1S 1
00188d 9508      	RET
                 
                 ;OPTIMIZER ADDED SUBROUTINE, CALLED 5 TIMES, CODE SIZE REDUCTION:5 WORDS
                 SUBOPT_0xD:
                +
00188e 81ed     +LDD R30 , Y + 5
00188f 81fe     +LDD R31 , Y + 5 + 1
001890 816f     +LDD R22 , Y + 5 + 2
001891 8578     +LDD R23 , Y + 5 + 3
                 	__GETD1S 5
001892 9508      	RET
                 
                 ;OPTIMIZER ADDED SUBROUTINE, CALLED 6 TIMES, CODE SIZE REDUCTION:7 WORDS
                 SUBOPT_0xE:
                +
001893 81a9     +LDD R26 , Y + 1
001894 81ba     +LDD R27 , Y + 1 + 1
001895 818b     +LDD R24 , Y + 1 + 2
001896 819c     +LDD R25 , Y + 1 + 3
                 	__GETD2S 1
001897 9508      	RET
                 
                 ;OPTIMIZER ADDED SUBROUTINE, CALLED 2 TIMES, CODE SIZE REDUCTION:13 WORDS
                 SUBOPT_0xF:
001898 85e9      	LDD  R30,Y+9
001899 85fa      	LDD  R31,Y+9+1
00189a 81a1      	LDD  R26,Z+1
00189b 93aa      	ST   -Y,R26
00189c 85ea      	LDD  R30,Y+10
00189d 85fb      	LDD  R31,Y+10+1
00189e 96f2      	ADIW R30,50
00189f 93fa      	ST   -Y,R31
0018a0 93ea      	ST   -Y,R30
                +
0018a1 81ec     +LDD R30 , Y + 4
0018a2 81fd     +LDD R31 , Y + 4 + 1
0018a3 816e     +LDD R22 , Y + 4 + 2
0018a4 817f     +LDD R23 , Y + 4 + 3
                 	__GETD1S 4
0018a5 940e 1d97 	CALL __PUTPARD1
0018a7 e0a1      	LDI  R26,LOW(1)
0018a8 940c 05dd 	JMP  _disk_write
                 
                 ;OPTIMIZER ADDED SUBROUTINE, CALLED 3 TIMES, CODE SIZE REDUCTION:1 WORDS
                 SUBOPT_0x10:
                +
0018aa a1a2     +LDD R26 , Z + 34
0018ab a1b3     +LDD R27 , Z + 34 + 1
0018ac a184     +LDD R24 , Z + 34 + 2
0018ad a195     +LDD R25 , Z + 34 + 3
                 	__GETD2Z 34
0018ae 9508      	RET
                 
                 ;OPTIMIZER ADDED SUBROUTINE, CALLED 2 TIMES, CODE SIZE REDUCTION:7 WORDS
                 SUBOPT_0x11:
0018af 93fa      	ST   -Y,R31
0018b0 93ea      	ST   -Y,R30
                +
0018b1 85e8     +LDD R30 , Y + 8
0018b2 85f9     +LDD R31 , Y + 8 + 1
0018b3 856a     +LDD R22 , Y + 8 + 2
0018b4 857b     +LDD R23 , Y + 8 + 3
                 	__GETD1S 8
0018b5 940e 1d97 	CALL __PUTPARD1
0018b7 e0a1      	LDI  R26,LOW(1)
0018b8 940e 0579 	CALL _disk_read
0018ba 30e0      	CPI  R30,0
0018bb 9508      	RET
                 
                 ;OPTIMIZER ADDED SUBROUTINE, CALLED 3 TIMES, CODE SIZE REDUCTION:9 WORDS
                 SUBOPT_0x12:
0018bc 93fa      	ST   -Y,R31
0018bd 93ea      	ST   -Y,R30
                +
0018be e0a0     +LDI R26 , LOW ( 0x0 )
0018bf e0b0     +LDI R27 , HIGH ( 0x0 )
0018c0 e080     +LDI R24 , BYTE3 ( 0x0 )
0018c1 e090     +LDI R25 , BYTE4 ( 0x0 )
                 	__GETD2N 0x0
0018c2 940c 0890 	JMP  _move_window_G102
                 
                 ;OPTIMIZER ADDED SUBROUTINE, CALLED 2 TIMES, CODE SIZE REDUCTION:2 WORDS
                 SUBOPT_0x13:
0018c4 969e      	ADIW R26,46
                +
0018c5 e0e0     +LDI R30 , LOW ( 0x0 )
0018c6 e0f0     +LDI R31 , HIGH ( 0x0 )
0018c7 e060     +LDI R22 , BYTE3 ( 0x0 )
0018c8 e070     +LDI R23 , BYTE4 ( 0x0 )
                 	__GETD1N 0x0
0018c9 940e 1d79 	CALL __PUTDP1
0018cb 9508      	RET
                 
                 ;OPTIMIZER ADDED SUBROUTINE, CALLED 2 TIMES, CODE SIZE REDUCTION:4 WORDS
                 SUBOPT_0x14:
0018cc 96f2      	ADIW R30,50
0018cd 93fa      	ST   -Y,R31
0018ce 93ea      	ST   -Y,R30
0018cf e0e0      	LDI  R30,LOW(0)
0018d0 93ea      	ST   -Y,R30
0018d1 e0a0      	LDI  R26,LOW(512)
0018d2 e0b2      	LDI  R27,HIGH(512)
0018d3 940c 1825 	JMP  _memset
                 
                 ;OPTIMIZER ADDED SUBROUTINE, CALLED 2 TIMES, CODE SIZE REDUCTION:2 WORDS
                 SUBOPT_0x15:
0018d5 940e 1d92 	CALL __PUTDZ20
0018d7 81e9      	LDD  R30,Y+1
0018d8 81fa      	LDD  R31,Y+1+1
0018d9 96f2      	ADIW R30,50
0018da 9508      	RET
                 
                 ;OPTIMIZER ADDED SUBROUTINE, CALLED 2 TIMES, CODE SIZE REDUCTION:2 WORDS
                 SUBOPT_0x16:
0018db 940e 1d6e 	CALL __GETD1P
0018dd 01d0      	MOVW R26,R0
0018de 940e 1d79 	CALL __PUTDP1
0018e0 81e9      	LDD  R30,Y+1
0018e1 81fa      	LDD  R31,Y+1+1
0018e2 9508      	RET
                 
                 ;OPTIMIZER ADDED SUBROUTINE, CALLED 2 TIMES, CODE SIZE REDUCTION:2 WORDS
                 SUBOPT_0x17:
                +
0018e3 89a2     +LDD R26 , Z + 18
0018e4 89b3     +LDD R27 , Z + 18 + 1
0018e5 8984     +LDD R24 , Z + 18 + 2
0018e6 8995     +LDD R25 , Z + 18 + 3
                 	__GETD2Z 18
0018e7 940e 1d9c 	CALL __PUTPARD2
0018e9 e0a1      	LDI  R26,LOW(1)
0018ea 9508      	RET
                 
                 ;OPTIMIZER ADDED SUBROUTINE, CALLED 10 TIMES, CODE SIZE REDUCTION:15 WORDS
                 SUBOPT_0x18:
                +
0018eb 85a8     +LDD R26 , Y + 8
0018ec 85b9     +LDD R27 , Y + 8 + 1
0018ed 858a     +LDD R24 , Y + 8 + 2
0018ee 859b     +LDD R25 , Y + 8 + 3
                 	__GETD2S 8
0018ef 9508      	RET
                 
                 ;OPTIMIZER ADDED SUBROUTINE, CALLED 8 TIMES, CODE SIZE REDUCTION:32 WORDS
                 SUBOPT_0x19:
                +
0018f0 30a2     +CPI R26 , LOW ( 0x2 )
0018f1 e0e0     +LDI R30 , HIGH ( 0x2 )
0018f2 07be     +CPC R27 , R30
0018f3 e0e0     +LDI R30 , BYTE3 ( 0x2 )
0018f4 078e     +CPC R24 , R30
0018f5 e0e0     +LDI R30 , BYTE4 ( 0x2 )
0018f6 079e     +CPC R25 , R30
                 	__CPD2N 0x2
0018f7 9508      	RET
                 
                 ;OPTIMIZER ADDED SUBROUTINE, CALLED 3 TIMES, CODE SIZE REDUCTION:1 WORDS
                 SUBOPT_0x1A:
                +
0018f8 e0e1     +LDI R30 , LOW ( 0x1 )
0018f9 e0f0     +LDI R31 , HIGH ( 0x1 )
0018fa e060     +LDI R22 , BYTE3 ( 0x1 )
0018fb e070     +LDI R23 , BYTE4 ( 0x1 )
                 	__GETD1N 0x1
0018fc 9508      	RET
                 
                 ;OPTIMIZER ADDED SUBROUTINE, CALLED 3 TIMES, CODE SIZE REDUCTION:5 WORDS
                 SUBOPT_0x1B:
0018fd 940e 1d6e 	CALL __GETD1P
                +
0018ff 83ec     +STD Y + 4 , R30
001900 83fd     +STD Y + 4 + 1 , R31
001901 836e     +STD Y + 4 + 2 , R22
001902 837f     +STD Y + 4 + 3 , R23
                 	__PUTD1S 4
001903 9508      	RET
                 
                 ;OPTIMIZER ADDED SUBROUTINE, CALLED 2 TIMES, CODE SIZE REDUCTION:13 WORDS
                 SUBOPT_0x1C:
001904 85ec      	LDD  R30,Y+12
001905 85fd      	LDD  R31,Y+12+1
001906 93fa      	ST   -Y,R31
001907 93ea      	ST   -Y,R30
001908 01d9      	MOVW R26,R18
001909 e0e0      	LDI  R30,LOW(512)
00190a e0f2      	LDI  R31,HIGH(512)
00190b 940e 1d24 	CALL __DIVW21U
00190d df60      	RCALL SUBOPT_0x8
00190e 2766      	CLR  R22
00190f 2777      	CLR  R23
001910 940e 1c8c 	CALL __ADDD21
001912 940e 0890 	CALL _move_window_G102
001914 30e0      	CPI  R30,0
001915 9508      	RET
                 
                 ;OPTIMIZER ADDED SUBROUTINE, CALLED 2 TIMES, CODE SIZE REDUCTION:2 WORDS
                 SUBOPT_0x1D:
001916 85ac      	LDD  R26,Y+12
001917 85bd      	LDD  R27,Y+12+1
001918 96d2      	ADIW R26,50
001919 01f9      	MOVW R30,R18
00191a 70f1      	ANDI R31,HIGH(0x1FF)
00191b 0fae      	ADD  R26,R30
00191c 1fbf      	ADC  R27,R31
00191d 9508      	RET
                 
                 ;OPTIMIZER ADDED SUBROUTINE, CALLED 2 TIMES, CODE SIZE REDUCTION:3 WORDS
                 SUBOPT_0x1E:
00191e 85ec      	LDD  R30,Y+12
00191f 85fd      	LDD  R31,Y+12+1
001920 93fa      	ST   -Y,R31
001921 93ea      	ST   -Y,R30
                +
001922 85aa     +LDD R26 , Y + 10
001923 85bb     +LDD R27 , Y + 10 + 1
001924 858c     +LDD R24 , Y + 10 + 2
001925 859d     +LDD R25 , Y + 10 + 3
                 	__GETD2S 10
001926 9508      	RET
                 
                 ;OPTIMIZER ADDED SUBROUTINE, CALLED 2 TIMES, CODE SIZE REDUCTION:1 WORDS
                 SUBOPT_0x1F:
                +
001927 e0e0     +LDI R30 , LOW ( 0x100 )
001928 e0f1     +LDI R31 , HIGH ( 0x100 )
001929 e060     +LDI R22 , BYTE3 ( 0x100 )
00192a e070     +LDI R23 , BYTE4 ( 0x100 )
                 	__GETD1N 0x100
00192b 940e 1d37 	CALL __DIVD21U
00192d 9508      	RET
                 
                 ;OPTIMIZER ADDED SUBROUTINE, CALLED 2 TIMES, CODE SIZE REDUCTION:2 WORDS
                 SUBOPT_0x20:
00192e df3f      	RCALL SUBOPT_0x8
00192f 940e 1c8c 	CALL __ADDD21
001931 940e 0890 	CALL _move_window_G102
001933 30e0      	CPI  R30,0
001934 9508      	RET
                 
                 ;OPTIMIZER ADDED SUBROUTINE, CALLED 2 TIMES, CODE SIZE REDUCTION:3 WORDS
                 SUBOPT_0x21:
001935 940e 1d19 	CALL __MULB1W2U
001937 70f1      	ANDI R31,HIGH(0x1FF)
001938 85ac      	LDD  R26,Y+12
001939 85bd      	LDD  R27,Y+12+1
00193a 96d2      	ADIW R26,50
00193b 0fae      	ADD  R26,R30
00193c 1fbf      	ADC  R27,R31
00193d 9508      	RET
                 
                 ;OPTIMIZER ADDED SUBROUTINE, CALLED 6 TIMES, CODE SIZE REDUCTION:7 WORDS
                 SUBOPT_0x22:
00193e 940e 1d6a 	CALL __GETW1P
001940 2766      	CLR  R22
001941 2777      	CLR  R23
001942 9508      	RET
                 
                 ;OPTIMIZER ADDED SUBROUTINE, CALLED 2 TIMES, CODE SIZE REDUCTION:1 WORDS
                 SUBOPT_0x23:
                +
001943 e8e0     +LDI R30 , LOW ( 0x80 )
001944 e0f0     +LDI R31 , HIGH ( 0x80 )
001945 e060     +LDI R22 , BYTE3 ( 0x80 )
001946 e070     +LDI R23 , BYTE4 ( 0x80 )
                 	__GETD1N 0x80
001947 940e 1d37 	CALL __DIVD21U
001949 9508      	RET
                 
                 ;OPTIMIZER ADDED SUBROUTINE, CALLED 4 TIMES, CODE SIZE REDUCTION:3 WORDS
                 SUBOPT_0x24:
                +
00194a efef     +LDI R30 , LOW ( 0xFFFFFFFF )
00194b efff     +LDI R31 , HIGH ( 0xFFFFFFFF )
00194c ef6f     +LDI R22 , BYTE3 ( 0xFFFFFFFF )
00194d ef7f     +LDI R23 , BYTE4 ( 0xFFFFFFFF )
                 	__GETD1N 0xFFFFFFFF
00194e 9508      	RET
                 
                 ;OPTIMIZER ADDED SUBROUTINE, CALLED 4 TIMES, CODE SIZE REDUCTION:3 WORDS
                 SUBOPT_0x25:
                +
00194f 85ae     +LDD R26 , Y + 14
001950 85bf     +LDD R27 , Y + 14 + 1
001951 8988     +LDD R24 , Y + 14 + 2
001952 8999     +LDD R25 , Y + 14 + 3
                 	__GETD2S 14
001953 9508      	RET
                 
                 ;OPTIMIZER ADDED SUBROUTINE, CALLED 2 TIMES, CODE SIZE REDUCTION:14 WORDS
                 SUBOPT_0x26:
001954 89ea      	LDD  R30,Y+18
001955 89fb      	LDD  R31,Y+18+1
001956 93fa      	ST   -Y,R31
001957 93ea      	ST   -Y,R30
001958 01d8      	MOVW R26,R16
001959 e0e0      	LDI  R30,LOW(512)
00195a e0f2      	LDI  R31,HIGH(512)
00195b 940e 1d24 	CALL __DIVW21U
00195d df8d      	RCALL SUBOPT_0x18
00195e 2766      	CLR  R22
00195f 2777      	CLR  R23
001960 940e 1c8c 	CALL __ADDD21
001962 940e 0890 	CALL _move_window_G102
001964 2f5e      	MOV  R21,R30
001965 3050      	CPI  R21,0
001966 9508      	RET
                 
                 ;OPTIMIZER ADDED SUBROUTINE, CALLED 2 TIMES, CODE SIZE REDUCTION:5 WORDS
                 SUBOPT_0x27:
001967 89aa      	LDD  R26,Y+18
001968 89bb      	LDD  R27,Y+18+1
001969 96d2      	ADIW R26,50
00196a 01f8      	MOVW R30,R16
00196b 70f1      	ANDI R31,HIGH(0x1FF)
00196c 0fea      	ADD  R30,R26
00196d 1ffb      	ADC  R31,R27
00196e 019f      	MOVW R18,R30
00196f 85ee      	LDD  R30,Y+14
001970 70e1      	ANDI R30,LOW(0x1)
001971 9508      	RET
                 
                 ;OPTIMIZER ADDED SUBROUTINE, CALLED 6 TIMES, CODE SIZE REDUCTION:7 WORDS
                 SUBOPT_0x28:
                +
001972 85aa     +LDD R26 , Y + 10
001973 85bb     +LDD R27 , Y + 10 + 1
001974 858c     +LDD R24 , Y + 10 + 2
001975 859d     +LDD R25 , Y + 10 + 3
                 	__GETD2S 10
001976 9508      	RET
                 
                 ;OPTIMIZER ADDED SUBROUTINE, CALLED 2 TIMES, CODE SIZE REDUCTION:3 WORDS
                 SUBOPT_0x29:
001977 89ea      	LDD  R30,Y+18
001978 89fb      	LDD  R31,Y+18+1
001979 93fa      	ST   -Y,R31
00197a 93ea      	ST   -Y,R30
                +
00197b 89a8     +LDD R26 , Y + 16
00197c 89b9     +LDD R27 , Y + 16 + 1
00197d 898a     +LDD R24 , Y + 16 + 2
00197e 899b     +LDD R25 , Y + 16 + 3
                 	__GETD2S 16
00197f 9508      	RET
                 
                 ;OPTIMIZER ADDED SUBROUTINE, CALLED 2 TIMES, CODE SIZE REDUCTION:3 WORDS
                 SUBOPT_0x2A:
001980 df6a      	RCALL SUBOPT_0x18
001981 940e 1c8c 	CALL __ADDD21
001983 940e 0890 	CALL _move_window_G102
001985 2f5e      	MOV  R21,R30
001986 3050      	CPI  R21,0
001987 9508      	RET
                 
                 ;OPTIMIZER ADDED SUBROUTINE, CALLED 2 TIMES, CODE SIZE REDUCTION:3 WORDS
                 SUBOPT_0x2B:
001988 940e 1d19 	CALL __MULB1W2U
00198a 70f1      	ANDI R31,HIGH(0x1FF)
00198b 89aa      	LDD  R26,Y+18
00198c 89bb      	LDD  R27,Y+18+1
00198d 96d2      	ADIW R26,50
00198e 0fea      	ADD  R30,R26
00198f 1ffb      	ADC  R31,R27
001990 9508      	RET
                 
                 ;OPTIMIZER ADDED SUBROUTINE, CALLED 5 TIMES, CODE SIZE REDUCTION:5 WORDS
                 SUBOPT_0x2C:
                +
001991 81ad     +LDD R26 , Y + 5
001992 81be     +LDD R27 , Y + 5 + 1
001993 818f     +LDD R24 , Y + 5 + 2
001994 8598     +LDD R25 , Y + 5 + 3
                 	__GETD2S 5
001995 9508      	RET
                 
                 ;OPTIMIZER ADDED SUBROUTINE, CALLED 2 TIMES, CODE SIZE REDUCTION:4 WORDS
                 SUBOPT_0x2D:
001996 85a9      	LDD  R26,Y+9
001997 85ba      	LDD  R27,Y+9+1
001998 965e      	ADIW R26,30
001999 940e 1d6e 	CALL __GETD1P
00199b dff5      	RCALL SUBOPT_0x2C
00199c 940e 1dbd 	CALL __CPD21
00199e 9508      	RET
                 
                 ;OPTIMIZER ADDED SUBROUTINE, CALLED 4 TIMES, CODE SIZE REDUCTION:3 WORDS
                 SUBOPT_0x2E:
                +
00199f 81e9     +LDD R30 , Y + 1
0019a0 81fa     +LDD R31 , Y + 1 + 1
0019a1 816b     +LDD R22 , Y + 1 + 2
0019a2 817c     +LDD R23 , Y + 1 + 3
                 	__GETD1S 1
0019a3 9508      	RET
                 
                 ;OPTIMIZER ADDED SUBROUTINE, CALLED 6 TIMES, CODE SIZE REDUCTION:22 WORDS
                 SUBOPT_0x2F:
                +
0019a4 30a1     +CPI R26 , LOW ( 0x1 )
0019a5 e0e0     +LDI R30 , HIGH ( 0x1 )
0019a6 07be     +CPC R27 , R30
0019a7 e0e0     +LDI R30 , BYTE3 ( 0x1 )
0019a8 078e     +CPC R24 , R30
0019a9 e0e0     +LDI R30 , BYTE4 ( 0x1 )
0019aa 079e     +CPC R25 , R30
                 	__CPD2N 0x1
0019ab 9508      	RET
                 
                 ;OPTIMIZER ADDED SUBROUTINE, CALLED 11 TIMES, CODE SIZE REDUCTION:47 WORDS
                 SUBOPT_0x30:
                +
0019ac 3faf     +CPI R26 , LOW ( 0xFFFFFFFF )
0019ad efef     +LDI R30 , HIGH ( 0xFFFFFFFF )
0019ae 07be     +CPC R27 , R30
0019af efef     +LDI R30 , BYTE3 ( 0xFFFFFFFF )
0019b0 078e     +CPC R24 , R30
0019b1 efef     +LDI R30 , BYTE4 ( 0xFFFFFFFF )
0019b2 079e     +CPC R25 , R30
                 	__CPD2N 0xFFFFFFFF
0019b3 9508      	RET
                 
                 ;OPTIMIZER ADDED SUBROUTINE, CALLED 4 TIMES, CODE SIZE REDUCTION:3 WORDS
                 SUBOPT_0x31:
                +
0019b4 e0a0     +LDI R26 , LOW ( 0x0 )
0019b5 e0b0     +LDI R27 , HIGH ( 0x0 )
0019b6 e080     +LDI R24 , BYTE3 ( 0x0 )
0019b7 e090     +LDI R25 , BYTE4 ( 0x0 )
                 	__GETD2N 0x0
0019b8 9508      	RET
                 
                 ;OPTIMIZER ADDED SUBROUTINE, CALLED 2 TIMES, CODE SIZE REDUCTION:1 WORDS
                 SUBOPT_0x32:
                +
0019b9 85a6     +LDD R26 , Z + 14
0019ba 85b7     +LDD R27 , Z + 14 + 1
0019bb 8980     +LDD R24 , Z + 14 + 2
0019bc 8991     +LDD R25 , Z + 14 + 3
                 	__GETD2Z 14
0019bd cfee      	RJMP SUBOPT_0x30
                 
                 ;OPTIMIZER ADDED SUBROUTINE, CALLED 2 TIMES, CODE SIZE REDUCTION:8 WORDS
                 SUBOPT_0x33:
0019be 85a9      	LDD  R26,Y+9
0019bf 85ba      	LDD  R27,Y+9+1
0019c0 961e      	ADIW R26,14
0019c1 940e 1d74 	CALL __GETD1P_INC
                +
0019c3 5fef     +SUBI R30 , LOW ( - 1 )
0019c4 4fff     +SBCI R31 , HIGH ( - 1 )
0019c5 4f6f     +SBCI R22 , BYTE3 ( - 1 )
0019c6 4f7f     +SBCI R23 , BYTE4 ( - 1 )
                 	__SUBD1N -1
0019c7 940e 1d7e 	CALL __PUTDP1_DEC
0019c9 85a9      	LDD  R26,Y+9
0019ca 85ba      	LDD  R27,Y+9+1
0019cb 9508      	RET
                 
                 ;OPTIMIZER ADDED SUBROUTINE, CALLED 4 TIMES, CODE SIZE REDUCTION:3 WORDS
                 SUBOPT_0x34:
                +
0019cc 83ed     +STD Y + 5 , R30
0019cd 83fe     +STD Y + 5 + 1 , R31
0019ce 836f     +STD Y + 5 + 2 , R22
0019cf 8778     +STD Y + 5 + 3 , R23
                 	__PUTD1S 5
0019d0 9508      	RET
                 
                 ;OPTIMIZER ADDED SUBROUTINE, CALLED 3 TIMES, CODE SIZE REDUCTION:1 WORDS
                 SUBOPT_0x35:
0019d1 940e 1d8d 	CALL __PUTD1S0
0019d3 9508      	RET
                 
                 ;OPTIMIZER ADDED SUBROUTINE, CALLED 4 TIMES, CODE SIZE REDUCTION:3 WORDS
                 SUBOPT_0x36:
                +
0019d4 89e8     +LDD R30 , Y + 16
0019d5 89f9     +LDD R31 , Y + 16 + 1
0019d6 896a     +LDD R22 , Y + 16 + 2
0019d7 897b     +LDD R23 , Y + 16 + 3
                 	__GETD1S 16
0019d8 9508      	RET
                 
                 ;OPTIMIZER ADDED SUBROUTINE, CALLED 9 TIMES, CODE SIZE REDUCTION:13 WORDS
                 SUBOPT_0x37:
                +
0019d9 81ac     +LDD R26 , Y + 4
0019da 81bd     +LDD R27 , Y + 4 + 1
0019db 818e     +LDD R24 , Y + 4 + 2
0019dc 819f     +LDD R25 , Y + 4 + 3
                 	__GETD2S 4
0019dd 9508      	RET
                 
                 ;OPTIMIZER ADDED SUBROUTINE, CALLED 6 TIMES, CODE SIZE REDUCTION:7 WORDS
                 SUBOPT_0x38:
0019de 940e 1d83 	CALL __GETD1S0
0019e0 9508      	RET
                 
                 ;OPTIMIZER ADDED SUBROUTINE, CALLED 6 TIMES, CODE SIZE REDUCTION:7 WORDS
                 SUBOPT_0x39:
                +
0019e1 83ec     +STD Y + 4 , R30
0019e2 83fd     +STD Y + 4 + 1 , R31
0019e3 836e     +STD Y + 4 + 2 , R22
0019e4 837f     +STD Y + 4 + 3 , R23
                 	__PUTD1S 4
0019e5 9508      	RET
                 
                 ;OPTIMIZER ADDED SUBROUTINE, CALLED 4 TIMES, CODE SIZE REDUCTION:3 WORDS
                 SUBOPT_0x3A:
0019e6 89ec      	LDD  R30,Y+20
0019e7 89fd      	LDD  R31,Y+20+1
0019e8 93fa      	ST   -Y,R31
0019e9 93ea      	ST   -Y,R30
0019ea 9508      	RET
                 
                 ;OPTIMIZER ADDED SUBROUTINE, CALLED 3 TIMES, CODE SIZE REDUCTION:1 WORDS
                 SUBOPT_0x3B:
                +
0019eb 89aa     +LDD R26 , Y + 18
0019ec 89bb     +LDD R27 , Y + 18 + 1
0019ed 898c     +LDD R24 , Y + 18 + 2
0019ee 899d     +LDD R25 , Y + 18 + 3
                 	__GETD2S 18
0019ef 9508      	RET
                 
                 ;OPTIMIZER ADDED SUBROUTINE, CALLED 2 TIMES, CODE SIZE REDUCTION:1 WORDS
                 SUBOPT_0x3C:
0019f0 940e 095e 	CALL _get_fat
                +
0019f2 87ec     +STD Y + 12 , R30
0019f3 87fd     +STD Y + 12 + 1 , R31
0019f4 876e     +STD Y + 12 + 2 , R22
0019f5 877f     +STD Y + 12 + 3 , R23
                 	__PUTD1S 12
0019f6 9508      	RET
                 
                 ;OPTIMIZER ADDED SUBROUTINE, CALLED 7 TIMES, CODE SIZE REDUCTION:9 WORDS
                 SUBOPT_0x3D:
                +
0019f7 85ac     +LDD R26 , Y + 12
0019f8 85bd     +LDD R27 , Y + 12 + 1
0019f9 858e     +LDD R24 , Y + 12 + 2
0019fa 859f     +LDD R25 , Y + 12 + 3
                 	__GETD2S 12
0019fb 9508      	RET
                 
                 ;OPTIMIZER ADDED SUBROUTINE, CALLED 11 TIMES, CODE SIZE REDUCTION:17 WORDS
                 SUBOPT_0x3E:
                +
0019fc 85ec     +LDD R30 , Y + 12
0019fd 85fd     +LDD R31 , Y + 12 + 1
0019fe 856e     +LDD R22 , Y + 12 + 2
0019ff 857f     +LDD R23 , Y + 12 + 3
                 	__GETD1S 12
001a00 9508      	RET
                 
                 ;OPTIMIZER ADDED SUBROUTINE, CALLED 7 TIMES, CODE SIZE REDUCTION:9 WORDS
                 SUBOPT_0x3F:
                +
001a01 81ec     +LDD R30 , Y + 4
001a02 81fd     +LDD R31 , Y + 4 + 1
001a03 816e     +LDD R22 , Y + 4 + 2
001a04 817f     +LDD R23 , Y + 4 + 3
                 	__GETD1S 4
001a05 9508      	RET
                 
                 ;OPTIMIZER ADDED SUBROUTINE, CALLED 6 TIMES, CODE SIZE REDUCTION:7 WORDS
                 SUBOPT_0x40:
                +
001a06 87e8     +STD Y + 8 , R30
001a07 87f9     +STD Y + 8 + 1 , R31
001a08 876a     +STD Y + 8 + 2 , R22
001a09 877b     +STD Y + 8 + 3 , R23
                 	__PUTD1S 8
001a0a 9508      	RET
                 
                 ;OPTIMIZER ADDED SUBROUTINE, CALLED 8 TIMES, CODE SIZE REDUCTION:11 WORDS
                 SUBOPT_0x41:
                +
001a0b 85e8     +LDD R30 , Y + 8
001a0c 85f9     +LDD R31 , Y + 8 + 1
001a0d 856a     +LDD R22 , Y + 8 + 2
001a0e 857b     +LDD R23 , Y + 8 + 3
                 	__GETD1S 8
001a0f 9508      	RET
                 
                 ;OPTIMIZER ADDED SUBROUTINE, CALLED 2 TIMES, CODE SIZE REDUCTION:1 WORDS
                 SUBOPT_0x42:
001a10 dff0      	RCALL SUBOPT_0x3F
001a11 ded9      	RCALL SUBOPT_0x18
001a12 940e 1db8 	CALL __CPD12
001a14 9508      	RET
                 
                 ;OPTIMIZER ADDED SUBROUTINE, CALLED 9 TIMES, CODE SIZE REDUCTION:13 WORDS
                 SUBOPT_0x43:
                +
001a15 e0e0     +LDI R30 , LOW ( 0x0 )
001a16 e0f0     +LDI R31 , HIGH ( 0x0 )
001a17 e060     +LDI R22 , BYTE3 ( 0x0 )
001a18 e070     +LDI R23 , BYTE4 ( 0x0 )
                 	__GETD1N 0x0
001a19 9508      	RET
                 
                 ;OPTIMIZER ADDED SUBROUTINE, CALLED 4 TIMES, CODE SIZE REDUCTION:3 WORDS
                 SUBOPT_0x44:
001a1a dfe1      	RCALL SUBOPT_0x3E
001a1b 940e 1dae 	CALL __CPD10
001a1d 9508      	RET
                 
                 ;OPTIMIZER ADDED SUBROUTINE, CALLED 5 TIMES, CODE SIZE REDUCTION:5 WORDS
                 SUBOPT_0x45:
                +
001a1e 89ea     +LDD R30 , Y + 18
001a1f 89fb     +LDD R31 , Y + 18 + 1
001a20 896c     +LDD R22 , Y + 18 + 2
001a21 897d     +LDD R23 , Y + 18 + 3
                 	__GETD1S 18
001a22 9508      	RET
                 
                 ;OPTIMIZER ADDED SUBROUTINE, CALLED 3 TIMES, CODE SIZE REDUCTION:1 WORDS
                 SUBOPT_0x46:
001a23 940e 1da1 	CALL __SWAPD12
001a25 940e 1c91 	CALL __SUBD12
001a27 9508      	RET
                 
                 ;OPTIMIZER ADDED SUBROUTINE, CALLED 2 TIMES, CODE SIZE REDUCTION:1 WORDS
                 SUBOPT_0x47:
001a28 940e 1d6e 	CALL __GETD1P
                +
001a2a 83ea     +STD Y + 2 , R30
001a2b 83fb     +STD Y + 2 + 1 , R31
001a2c 836c     +STD Y + 2 + 2 , R22
001a2d 837d     +STD Y + 2 + 3 , R23
                 	__PUTD1S 2
001a2e 9508      	RET
                 
                 ;OPTIMIZER ADDED SUBROUTINE, CALLED 6 TIMES, CODE SIZE REDUCTION:7 WORDS
                 SUBOPT_0x48:
                +
001a2f 81aa     +LDD R26 , Y + 2
001a30 81bb     +LDD R27 , Y + 2 + 1
001a31 818c     +LDD R24 , Y + 2 + 2
001a32 819d     +LDD R25 , Y + 2 + 3
                 	__GETD2S 2
001a33 9508      	RET
                 
                 ;OPTIMIZER ADDED SUBROUTINE, CALLED 15 TIMES, CODE SIZE REDUCTION:25 WORDS
                 SUBOPT_0x49:
001a34 85a8      	LDD  R26,Y+8
001a35 85b9      	LDD  R27,Y+8+1
001a36 940e 1d6a 	CALL __GETW1P
001a38 9508      	RET
                 
                 ;OPTIMIZER ADDED SUBROUTINE, CALLED 2 TIMES, CODE SIZE REDUCTION:3 WORDS
                 SUBOPT_0x4A:
001a39 967e      	ADIW R30,30
001a3a 01df      	MOVW R26,R30
001a3b 940e 1d6e 	CALL __GETD1P
001a3d dff1      	RCALL SUBOPT_0x48
001a3e 940e 1dbd 	CALL __CPD21
001a40 9508      	RET
                 
                 ;OPTIMIZER ADDED SUBROUTINE, CALLED 2 TIMES, CODE SIZE REDUCTION:1 WORDS
                 SUBOPT_0x4B:
                +
001a41 81ea     +LDD R30 , Y + 2
001a42 81fb     +LDD R31 , Y + 2 + 1
001a43 816c     +LDD R22 , Y + 2 + 2
001a44 817d     +LDD R23 , Y + 2 + 3
                 	__GETD1S 2
001a45 940e 1dae 	CALL __CPD10
001a47 9508      	RET
                 
                 ;OPTIMIZER ADDED SUBROUTINE, CALLED 2 TIMES, CODE SIZE REDUCTION:7 WORDS
                 SUBOPT_0x4C:
                +
001a48 81ea     +LDD R30 , Y + 2
001a49 81fb     +LDD R31 , Y + 2 + 1
001a4a 816c     +LDD R22 , Y + 2 + 2
001a4b 817d     +LDD R23 , Y + 2 + 3
                 	__GETD1S 2
                +
001a4c 85a8     +LDD R26 , Y + 8
001a4d 85b9     +LDD R27 , Y + 8 + 1
001a4e 961a     +ADIW R26 , 10
001a4f 940e 1d79+CALL __PUTDP1
                 	__PUTD1SNS 8,10
001a51 cfe2      	RJMP SUBOPT_0x49
                 
                 ;OPTIMIZER ADDED SUBROUTINE, CALLED 7 TIMES, CODE SIZE REDUCTION:9 WORDS
                 SUBOPT_0x4D:
001a52 2766      	CLR  R22
001a53 2777      	CLR  R23
001a54 940e 1c87 	CALL __ADDD12
001a56 9508      	RET
                 
                 ;OPTIMIZER ADDED SUBROUTINE, CALLED 2 TIMES, CODE SIZE REDUCTION:2 WORDS
                 SUBOPT_0x4E:
001a57 70ef      	ANDI R30,LOW(0xF)
001a58 70f0      	ANDI R31,HIGH(0xF)
001a59 0fee      	LSL  R30
001a5a 940e 1cc1 	CALL __LSLW4
001a5c 0fea      	ADD  R30,R26
001a5d 1ffb      	ADC  R31,R27
001a5e 9508      	RET
                 
                 ;OPTIMIZER ADDED SUBROUTINE, CALLED 3 TIMES, CODE SIZE REDUCTION:1 WORDS
                 SUBOPT_0x4F:
001a5f 940e 1d6e 	CALL __GETD1P
001a61 940e 1dae 	CALL __CPD10
001a63 9508      	RET
                 
                 ;OPTIMIZER ADDED SUBROUTINE, CALLED 15 TIMES, CODE SIZE REDUCTION:25 WORDS
                 SUBOPT_0x50:
001a64 85a9      	LDD  R26,Y+9
001a65 85ba      	LDD  R27,Y+9+1
001a66 940e 1d6a 	CALL __GETW1P
001a68 9508      	RET
                 
                 ;OPTIMIZER ADDED SUBROUTINE, CALLED 2 TIMES, CODE SIZE REDUCTION:3 WORDS
                 SUBOPT_0x51:
001a69 93fa      	ST   -Y,R31
001a6a 93ea      	ST   -Y,R30
001a6b 85eb      	LDD  R30,Y+11
001a6c 85fc      	LDD  R31,Y+11+1
                +
001a6d 85a2     +LDD R26 , Z + 10
001a6e 85b3     +LDD R27 , Z + 10 + 1
001a6f 8584     +LDD R24 , Z + 10 + 2
001a70 8595     +LDD R25 , Z + 10 + 3
                 	__GETD2Z 10
001a71 9508      	RET
                 
                 ;OPTIMIZER ADDED SUBROUTINE, CALLED 3 TIMES, CODE SIZE REDUCTION:1 WORDS
                 SUBOPT_0x52:
001a72 df6e      	RCALL SUBOPT_0x39
001a73 cf8d      	RJMP SUBOPT_0x3F
                 
                 ;OPTIMIZER ADDED SUBROUTINE, CALLED 2 TIMES, CODE SIZE REDUCTION:1 WORDS
                 SUBOPT_0x53:
001a74 93fa      	ST   -Y,R31
001a75 93ea      	ST   -Y,R30
001a76 ddf7      	RCALL SUBOPT_0x8
001a77 940c 0b8f 	JMP  _clust2sect
                 
                 ;OPTIMIZER ADDED SUBROUTINE, CALLED 2 TIMES, CODE SIZE REDUCTION:9 WORDS
                 SUBOPT_0x54:
001a79 93ba      	ST   -Y,R27
001a7a 93aa      	ST   -Y,R26
001a7b 940e 1dc4 	CALL __SAVELOCR4
001a7d 81ec      	LDD  R30,Y+4
001a7e 81fd      	LDD  R31,Y+4+1
001a7f 93fa      	ST   -Y,R31
001a80 93ea      	ST   -Y,R30
001a81 e0a0      	LDI  R26,LOW(0)
001a82 e0b0      	LDI  R27,0
001a83 940e 0bc7 	CALL _dir_seek_G102
001a85 2f1e      	MOV  R17,R30
001a86 3010      	CPI  R17,0
001a87 9508      	RET
                 
                 ;OPTIMIZER ADDED SUBROUTINE, CALLED 3 TIMES, CODE SIZE REDUCTION:25 WORDS
                 SUBOPT_0x55:
001a88 81ac      	LDD  R26,Y+4
001a89 81bd      	LDD  R27,Y+4+1
001a8a 940e 1d6a 	CALL __GETW1P
001a8c 93fa      	ST   -Y,R31
001a8d 93ea      	ST   -Y,R30
001a8e 81ee      	LDD  R30,Y+6
001a8f 81ff      	LDD  R31,Y+6+1
                +
001a90 85a6     +LDD R26 , Z + 14
001a91 85b7     +LDD R27 , Z + 14 + 1
001a92 8980     +LDD R24 , Z + 14 + 2
001a93 8991     +LDD R25 , Z + 14 + 3
                 	__GETD2Z 14
001a94 940e 0890 	CALL _move_window_G102
001a96 2f1e      	MOV  R17,R30
001a97 3010      	CPI  R17,0
001a98 9508      	RET
                 
                 ;OPTIMIZER ADDED SUBROUTINE, CALLED 2 TIMES, CODE SIZE REDUCTION:5 WORDS
                 SUBOPT_0x56:
001a99 933a      	ST   -Y,R19
001a9a 932a      	ST   -Y,R18
001a9b 81ee      	LDD  R30,Y+6
001a9c 81ff      	LDD  R31,Y+6+1
001a9d 89a4      	LDD  R26,Z+20
001a9e 89b5      	LDD  R27,Z+21
001a9f 93ba      	ST   -Y,R27
001aa0 93aa      	ST   -Y,R26
001aa1 e0ab      	LDI  R26,LOW(11)
001aa2 e0b0      	LDI  R27,0
001aa3 9508      	RET
                 
                 ;OPTIMIZER ADDED SUBROUTINE, CALLED 3 TIMES, CODE SIZE REDUCTION:1 WORDS
                 SUBOPT_0x57:
001aa4 85e8      	LDD  R30,Y+8
001aa5 85f9      	LDD  R31,Y+8+1
001aa6 81ae      	LDD  R26,Y+6
001aa7 81bf      	LDD  R27,Y+6+1
001aa8 9508      	RET
                 
                 ;OPTIMIZER ADDED SUBROUTINE, CALLED 2 TIMES, CODE SIZE REDUCTION:6 WORDS
                 SUBOPT_0x58:
001aa9 85e8      	LDD  R30,Y+8
001aaa 85f9      	LDD  R31,Y+8+1
001aab 9631      	ADIW R30,1
001aac 87e8      	STD  Y+8,R30
001aad 87f9      	STD  Y+8+1,R31
001aae 9731      	SBIW R30,1
001aaf 81ae      	LDD  R26,Y+6
001ab0 81bf      	LDD  R27,Y+6+1
001ab1 0fae      	ADD  R26,R30
001ab2 1fbf      	ADC  R27,R31
001ab3 910c      	LD   R16,X
001ab4 9508      	RET
                 
                 ;OPTIMIZER ADDED SUBROUTINE, CALLED 3 TIMES, CODE SIZE REDUCTION:5 WORDS
                 SUBOPT_0x59:
001ab5 2fe2      	MOV  R30,R18
001ab6 5f2f      	SUBI R18,-1
001ab7 e0f0      	LDI  R31,0
001ab8 0fe4      	ADD  R30,R20
001ab9 1ff5      	ADC  R31,R21
001aba 8300      	ST   Z,R16
001abb 9508      	RET
                 
                 ;OPTIMIZER ADDED SUBROUTINE, CALLED 2 TIMES, CODE SIZE REDUCTION:2 WORDS
                 SUBOPT_0x5A:
001abc 0fea      	ADD  R30,R26
001abd 1ffb      	ADC  R31,R27
001abe 85ab      	LDD  R26,Y+11
001abf 85bc      	LDD  R27,Y+11+1
001ac0 93ed      	ST   X+,R30
001ac1 93fc      	ST   X,R31
001ac2 3201      	CPI  R16,33
001ac3 9508      	RET
                 
                 ;OPTIMIZER ADDED SUBROUTINE, CALLED 4 TIMES, CODE SIZE REDUCTION:3 WORDS
                 SUBOPT_0x5B:
001ac4 df50      	RCALL SUBOPT_0x43
001ac5 940e 1d79 	CALL __PUTDP1
001ac7 9508      	RET
                 
                 ;OPTIMIZER ADDED SUBROUTINE, CALLED 2 TIMES, CODE SIZE REDUCTION:1 WORDS
                 SUBOPT_0x5C:
                +
001ac8 81ae     +LDD R26 , Y + 6
001ac9 81bf     +LDD R27 , Y + 6 + 1
001aca 9616     +ADIW R26 , 6
001acb 940e 1d79+CALL __PUTDP1
                 	__PUTD1SNS 6,6
001acd 9508      	RET
                 
                 ;OPTIMIZER ADDED SUBROUTINE, CALLED 5 TIMES, CODE SIZE REDUCTION:5 WORDS
                 SUBOPT_0x5D:
001ace 81ee      	LDD  R30,Y+6
001acf 81ff      	LDD  R31,Y+6+1
001ad0 93fa      	ST   -Y,R31
001ad1 93ea      	ST   -Y,R30
001ad2 9508      	RET
                 
                 ;OPTIMIZER ADDED SUBROUTINE, CALLED 4 TIMES, CODE SIZE REDUCTION:3 WORDS
                 SUBOPT_0x5E:
001ad3 e0e0      	LDI  R30,LOW(0)
001ad4 e0f0      	LDI  R31,HIGH(0)
001ad5 93ed      	ST   X+,R30
001ad6 93fc      	ST   X,R31
001ad7 9508      	RET
                 
                 ;OPTIMIZER ADDED SUBROUTINE, CALLED 3 TIMES, CODE SIZE REDUCTION:1 WORDS
                 SUBOPT_0x5F:
001ad8 01d9      	MOVW R26,R18
001ad9 9654      	ADIW R26,20
001ada ce63      	RJMP SUBOPT_0x22
                 
                 ;OPTIMIZER ADDED SUBROUTINE, CALLED 3 TIMES, CODE SIZE REDUCTION:1 WORDS
                 SUBOPT_0x60:
001adb 01d9      	MOVW R26,R18
001adc 965a      	ADIW R26,26
001add 940e 1d6a 	CALL __GETW1P
001adf 9508      	RET
                 
                 ;OPTIMIZER ADDED SUBROUTINE, CALLED 3 TIMES, CODE SIZE REDUCTION:1 WORDS
                 SUBOPT_0x61:
001ae0 2766      	CLR  R22
001ae1 2777      	CLR  R23
001ae2 940e 1ca0 	CALL __ORD12
001ae4 9508      	RET
                 
                 ;OPTIMIZER ADDED SUBROUTINE, CALLED 3 TIMES, CODE SIZE REDUCTION:5 WORDS
                 SUBOPT_0x62:
001ae5 940e 1d97 	CALL __PUTPARD1
001ae7 e0a1      	LDI  R26,LOW(1)
001ae8 940e 0579 	CALL _disk_read
001aea 30e0      	CPI  R30,0
001aeb 9508      	RET
                 
                 ;OPTIMIZER ADDED SUBROUTINE, CALLED 2 TIMES, CODE SIZE REDUCTION:4 WORDS
                 SUBOPT_0x63:
001aec 96f2      	ADIW R30,50
001aed 50e2      	SUBI R30,LOW(-510)
001aee 4ffe      	SBCI R31,HIGH(-510)
001aef 01df      	MOVW R26,R30
001af0 940e 1d6a 	CALL __GETW1P
001af2 35e5      	CPI  R30,LOW(0xAA55)
001af3 eaaa      	LDI  R26,HIGH(0xAA55)
001af4 07fa      	CPC  R31,R26
001af5 9508      	RET
                 
                 ;OPTIMIZER ADDED SUBROUTINE, CALLED 2 TIMES, CODE SIZE REDUCTION:8 WORDS
                 SUBOPT_0x64:
001af6 940e 1d6e 	CALL __GETD1P
                +
001af8 7fef     +ANDI R30 , LOW ( 0xFFFFFF )
001af9 7fff     +ANDI R31 , HIGH ( 0xFFFFFF )
001afa 7f6f     +ANDI R22 , BYTE3 ( 0xFFFFFF )
001afb 7070     +ANDI R23 , BYTE4 ( 0xFFFFFF )
                 	__ANDD1N 0xFFFFFF
                +
001afc 34e6     +CPI R30 , LOW ( 0x544146 )
001afd e4a1     +LDI R26 , HIGH ( 0x544146 )
001afe 07fa     +CPC R31 , R26
001aff e5a4     +LDI R26 , BYTE3 ( 0x544146 )
001b00 076a     +CPC R22 , R26
001b01 e0a0     +LDI R26 , BYTE4 ( 0x544146 )
001b02 077a     +CPC R23 , R26
                 	__CPD1N 0x544146
001b03 9508      	RET
                 
                 ;OPTIMIZER ADDED SUBROUTINE, CALLED 2 TIMES, CODE SIZE REDUCTION:2 WORDS
                 SUBOPT_0x65:
001b04 e3a2      	LDI  R26,LOW(_FatFs_G102)
001b05 e0b7      	LDI  R27,HIGH(_FatFs_G102)
001b06 e0f0      	LDI  R31,0
001b07 0fee      	LSL  R30
001b08 1fff      	ROL  R31
001b09 0fae      	ADD  R26,R30
001b0a 1fbf      	ADC  R27,R31
001b0b 9508      	RET
                 
                 ;OPTIMIZER ADDED SUBROUTINE, CALLED 3 TIMES, CODE SIZE REDUCTION:1 WORDS
                 SUBOPT_0x66:
                +
001b0c 8bea     +STD Y + 18 , R30
001b0d 8bfb     +STD Y + 18 + 1 , R31
001b0e 8b6c     +STD Y + 18 + 2 , R22
001b0f 8b7d     +STD Y + 18 + 3 , R23
                 	__PUTD1S 18
001b10 9508      	RET
                 
                 ;OPTIMIZER ADDED SUBROUTINE, CALLED 2 TIMES, CODE SIZE REDUCTION:1 WORDS
                 SUBOPT_0x67:
001b11 81ae      	LDD  R26,Y+6
001b12 81bf      	LDD  R27,Y+6+1
001b13 5ca0      	SUBI R26,LOW(-64)
001b14 4fbf      	SBCI R27,HIGH(-64)
001b15 940e 1d6a 	CALL __GETW1P
001b17 9508      	RET
                 
                 ;OPTIMIZER ADDED SUBROUTINE, CALLED 2 TIMES, CODE SIZE REDUCTION:1 WORDS
                 SUBOPT_0x68:
                +
001b18 89ae     +LDD R26 , Y + 22
001b19 89bf     +LDD R27 , Y + 22 + 1
001b1a 8d88     +LDD R24 , Y + 22 + 2
001b1b 8d99     +LDD R25 , Y + 22 + 3
                 	__GETD2S 22
001b1c cf35      	RJMP SUBOPT_0x4D
                 
                 ;OPTIMIZER ADDED SUBROUTINE, CALLED 2 TIMES, CODE SIZE REDUCTION:2 WORDS
                 SUBOPT_0x69:
001b1d 81ee      	LDD  R30,Y+6
001b1e 81ff      	LDD  R31,Y+6+1
001b1f 85a0      	LDD  R26,Z+8
001b20 85b1      	LDD  R27,Z+9
001b21 01fd      	MOVW R30,R26
001b22 940e 1cca 	CALL __LSRW4
001b24 9508      	RET
                 
                 ;OPTIMIZER ADDED SUBROUTINE, CALLED 2 TIMES, CODE SIZE REDUCTION:3 WORDS
                 SUBOPT_0x6A:
001b25 81ee      	LDD  R30,Y+6
001b26 81ff      	LDD  R31,Y+6+1
001b27 dd82      	RCALL SUBOPT_0x10
001b28 def5      	RCALL SUBOPT_0x45
001b29 940e 1c87 	CALL __ADDD12
001b2b 9508      	RET
                 
                 ;OPTIMIZER ADDED SUBROUTINE, CALLED 5 TIMES, CODE SIZE REDUCTION:5 WORDS
                 SUBOPT_0x6B:
                +
001b2c 50e1     +SUBI R30 , LOW ( 1 )
001b2d 40f0     +SBCI R31 , HIGH ( 1 )
001b2e 4060     +SBCI R22 , BYTE3 ( 1 )
001b2f 4070     +SBCI R23 , BYTE4 ( 1 )
                 	__SUBD1N 1
001b30 9508      	RET
                 
                 ;OPTIMIZER ADDED SUBROUTINE, CALLED 9 TIMES, CODE SIZE REDUCTION:13 WORDS
                 SUBOPT_0x6C:
001b31 8daa      	LDD  R26,Y+26
001b32 8dbb      	LDD  R27,Y+26+1
001b33 940e 1d6a 	CALL __GETW1P
001b35 9508      	RET
                 
                 ;OPTIMIZER ADDED SUBROUTINE, CALLED 4 TIMES, CODE SIZE REDUCTION:3 WORDS
                 SUBOPT_0x6D:
001b36 93fa      	ST   -Y,R31
001b37 93ea      	ST   -Y,R30
001b38 8dec      	LDD  R30,Y+28
001b39 8dfd      	LDD  R31,Y+28+1
001b3a 9508      	RET
                 
                 ;OPTIMIZER ADDED SUBROUTINE, CALLED 4 TIMES, CODE SIZE REDUCTION:9 WORDS
                 SUBOPT_0x6E:
001b3b 81a2      	LDD  R26,Z+2
001b3c 81b3      	LDD  R27,Z+3
001b3d 940e 1118 	CALL _validate_G102
001b3f 2f1e      	MOV  R17,R30
001b40 3010      	CPI  R17,0
001b41 9508      	RET
                 
                 ;OPTIMIZER ADDED SUBROUTINE, CALLED 3 TIMES, CODE SIZE REDUCTION:5 WORDS
                 SUBOPT_0x6F:
001b42 8dea      	LDD  R30,Y+26
001b43 8dfb      	LDD  R31,Y+26+1
                +
001b44 81a6     +LDD R26 , Z + 6
001b45 81b7     +LDD R27 , Z + 6 + 1
001b46 8580     +LDD R24 , Z + 6 + 2
001b47 8591     +LDD R25 , Z + 6 + 3
                 	__GETD2Z 6
001b48 9508      	RET
                 
                 ;OPTIMIZER ADDED SUBROUTINE, CALLED 3 TIMES, CODE SIZE REDUCTION:1 WORDS
                 SUBOPT_0x70:
001b49 01fd      	MOVW R30,R26
001b4a 01bc      	MOVW R22,R24
001b4b 70f1      	ANDI R31,HIGH(0x1FF)
001b4c 9730      	SBIW R30,0
001b4d 9508      	RET
                 
                 ;OPTIMIZER ADDED SUBROUTINE, CALLED 4 TIMES, CODE SIZE REDUCTION:3 WORDS
                 SUBOPT_0x71:
                +
001b4e 89a2     +LDD R26 , Z + 18
001b4f 89b3     +LDD R27 , Z + 18 + 1
001b50 8984     +LDD R24 , Z + 18 + 2
001b51 8995     +LDD R25 , Z + 18 + 3
                 	__GETD2Z 18
001b52 9508      	RET
                 
                 ;OPTIMIZER ADDED SUBROUTINE, CALLED 6 TIMES, CODE SIZE REDUCTION:17 WORDS
                 SUBOPT_0x72:
001b53 8daa      	LDD  R26,Y+26
001b54 8dbb      	LDD  R27,Y+26+1
001b55 9614      	ADIW R26,4
001b56 91ec      	LD   R30,X
001b57 68e0      	ORI  R30,0x80
001b58 93ec      	ST   X,R30
001b59 9508      	RET
                 
                 ;OPTIMIZER ADDED SUBROUTINE, CALLED 5 TIMES, CODE SIZE REDUCTION:5 WORDS
                 SUBOPT_0x73:
                +
001b5a 87ec     +STD Y + 12 , R30
001b5b 87fd     +STD Y + 12 + 1 , R31
001b5c 876e     +STD Y + 12 + 2 , R22
001b5d 877f     +STD Y + 12 + 3 , R23
                 	__PUTD1S 12
001b5e 9508      	RET
                 
                 ;OPTIMIZER ADDED SUBROUTINE, CALLED 3 TIMES, CODE SIZE REDUCTION:1 WORDS
                 SUBOPT_0x74:
001b5f 8dea      	LDD  R30,Y+26
001b60 8dfb      	LDD  R31,Y+26+1
001b61 81e5      	LDD  R30,Z+5
001b62 e0f0      	LDI  R31,0
001b63 9508      	RET
                 
                 ;OPTIMIZER ADDED SUBROUTINE, CALLED 3 TIMES, CODE SIZE REDUCTION:1 WORDS
                 SUBOPT_0x75:
001b64 940e 1ce2 	CALL __CWD1
001b66 940e 1c87 	CALL __ADDD12
001b68 9508      	RET
                 
                 ;OPTIMIZER ADDED SUBROUTINE, CALLED 2 TIMES, CODE SIZE REDUCTION:2 WORDS
                 SUBOPT_0x76:
001b69 e0e0      	LDI  R30,LOW(512)
001b6a e0f2      	LDI  R31,HIGH(512)
001b6b 940e 1d24 	CALL __DIVW21U
001b6d 01af      	MOVW R20,R30
001b6e 2e04      	MOV  R0,R20
001b6f 2a05      	OR   R0,R21
001b70 9508      	RET
                 
                 ;OPTIMIZER ADDED SUBROUTINE, CALLED 2 TIMES, CODE SIZE REDUCTION:1 WORDS
                 SUBOPT_0x77:
001b71 81e1      	LDD  R30,Z+1
001b72 93ea      	ST   -Y,R30
001b73 81ef      	LDD  R30,Y+7
001b74 85f8      	LDD  R31,Y+7+1
001b75 93fa      	ST   -Y,R31
001b76 93ea      	ST   -Y,R30
001b77 9508      	RET
                 
                 ;OPTIMIZER ADDED SUBROUTINE, CALLED 3 TIMES, CODE SIZE REDUCTION:9 WORDS
                 SUBOPT_0x78:
001b78 8dea      	LDD  R30,Y+26
001b79 8dfb      	LDD  R31,Y+26+1
                +
001b7a 89a6     +LDD R26 , Z + 22
001b7b 89b7     +LDD R27 , Z + 22 + 1
001b7c 8d80     +LDD R24 , Z + 22 + 2
001b7d 8d91     +LDD R25 , Z + 22 + 3
                 	__GETD2Z 22
001b7e ce7d      	RJMP SUBOPT_0x3E
                 
                 ;OPTIMIZER ADDED SUBROUTINE, CALLED 2 TIMES, CODE SIZE REDUCTION:2 WORDS
                 SUBOPT_0x79:
001b7f 940e 1c96 	CALL __SUBD21
001b81 01fa      	MOVW R30,R20
001b82 2766      	CLR  R22
001b83 2777      	CLR  R23
001b84 940e 1dbd 	CALL __CPD21
001b86 9508      	RET
                 
                 ;OPTIMIZER ADDED SUBROUTINE, CALLED 2 TIMES, CODE SIZE REDUCTION:3 WORDS
                 SUBOPT_0x7A:
001b87 940e 1c96 	CALL __SUBD21
                +
001b89 e0e0     +LDI R30 , LOW ( 0x200 )
001b8a e0f2     +LDI R31 , HIGH ( 0x200 )
001b8b e060     +LDI R22 , BYTE3 ( 0x200 )
001b8c e070     +LDI R23 , BYTE4 ( 0x200 )
                 	__GETD1N 0x200
001b8d 940e 1cf9 	CALL __MULD12U
001b8f 9508      	RET
                 
                 ;OPTIMIZER ADDED SUBROUTINE, CALLED 2 TIMES, CODE SIZE REDUCTION:1 WORDS
                 SUBOPT_0x7B:
001b90 93fa      	ST   -Y,R31
001b91 93ea      	ST   -Y,R30
001b92 e0a0      	LDI  R26,LOW(512)
001b93 e0b2      	LDI  R27,HIGH(512)
001b94 940c 1813 	JMP  _memcpy
                 
                 ;OPTIMIZER ADDED SUBROUTINE, CALLED 2 TIMES, CODE SIZE REDUCTION:5 WORDS
                 SUBOPT_0x7C:
001b96 9615      	ADIW R26,5
001b97 91ec      	LD   R30,X
001b98 0fe4      	ADD  R30,R20
001b99 93ec      	ST   X,R30
001b9a 01fa      	MOVW R30,R20
001b9b 0fee      	LSL  R30
001b9c 1fff      	ROL  R31
001b9d 2ffe      	MOV  R31,R30
001b9e e0e0      	LDI  R30,0
001b9f 019f      	MOVW R18,R30
001ba0 9508      	RET
                 
                 ;OPTIMIZER ADDED SUBROUTINE, CALLED 2 TIMES, CODE SIZE REDUCTION:2 WORDS
                 SUBOPT_0x7D:
001ba1 81e1      	LDD  R30,Z+1
001ba2 93ea      	ST   -Y,R30
001ba3 8deb      	LDD  R30,Y+27
001ba4 8dfc      	LDD  R31,Y+27+1
001ba5 96b0      	ADIW R30,32
001ba6 93fa      	ST   -Y,R31
001ba7 93ea      	ST   -Y,R30
001ba8 9508      	RET
                 
                 ;OPTIMIZER ADDED SUBROUTINE, CALLED 4 TIMES, CODE SIZE REDUCTION:21 WORDS
                 SUBOPT_0x7E:
                +
001ba9 89a6     +LDD R26 , Z + 22
001baa 89b7     +LDD R27 , Z + 22 + 1
001bab 8d80     +LDD R24 , Z + 22 + 2
001bac 8d91     +LDD R25 , Z + 22 + 3
                 	__GETD2Z 22
001bad 940e 1d9c 	CALL __PUTPARD2
001baf e0a1      	LDI  R26,LOW(1)
001bb0 940e 05dd 	CALL _disk_write
001bb2 30e0      	CPI  R30,0
001bb3 9508      	RET
                 
                 ;OPTIMIZER ADDED SUBROUTINE, CALLED 5 TIMES, CODE SIZE REDUCTION:5 WORDS
                 SUBOPT_0x7F:
001bb4 9614      	ADIW R26,4
001bb5 91ec      	LD   R30,X
001bb6 7bef      	ANDI R30,0xBF
001bb7 93ec      	ST   X,R30
001bb8 9508      	RET
                 
                 ;OPTIMIZER ADDED SUBROUTINE, CALLED 3 TIMES, CODE SIZE REDUCTION:1 WORDS
                 SUBOPT_0x80:
001bb9 9615      	ADIW R26,5
001bba 91ec      	LD   R30,X
001bbb 5fef      	SUBI R30,-LOW(1)
001bbc 93ec      	ST   X,R30
001bbd 9508      	RET
                 
                 ;OPTIMIZER ADDED SUBROUTINE, CALLED 4 TIMES, CODE SIZE REDUCTION:3 WORDS
                 SUBOPT_0x81:
001bbe 9616      	ADIW R26,6
001bbf 940e 1d6a 	CALL __GETW1P
001bc1 70f1      	ANDI R31,HIGH(0x1FF)
001bc2 9508      	RET
                 
                 ;OPTIMIZER ADDED SUBROUTINE, CALLED 2 TIMES, CODE SIZE REDUCTION:2 WORDS
                 SUBOPT_0x82:
001bc3 01f9      	MOVW R30,R18
001bc4 81ae      	LDD  R26,Y+6
001bc5 81bf      	LDD  R27,Y+6+1
001bc6 0fea      	ADD  R30,R26
001bc7 1ffb      	ADC  R31,R27
001bc8 83ee      	STD  Y+6,R30
001bc9 83ff      	STD  Y+6+1,R31
001bca 9508      	RET
                 
                 ;OPTIMIZER ADDED SUBROUTINE, CALLED 2 TIMES, CODE SIZE REDUCTION:5 WORDS
                 SUBOPT_0x83:
001bcb 9636      	ADIW R30,6
001bcc 010f      	MOVW R0,R30
001bcd 01df      	MOVW R26,R30
001bce 940e 1d6e 	CALL __GETD1P
001bd0 01df      	MOVW R26,R30
001bd1 01cb      	MOVW R24,R22
001bd2 01f9      	MOVW R30,R18
001bd3 ce7e      	RJMP SUBOPT_0x4D
                 
                 ;OPTIMIZER ADDED SUBROUTINE, CALLED 2 TIMES, CODE SIZE REDUCTION:1 WORDS
                 SUBOPT_0x84:
001bd4 91ed      	LD   R30,X+
001bd5 91fd      	LD   R31,X+
001bd6 0fe2      	ADD  R30,R18
001bd7 1ff3      	ADC  R31,R19
001bd8 93fe      	ST   -X,R31
001bd9 93ee      	ST   -X,R30
001bda 9508      	RET
                 
                 ;OPTIMIZER ADDED SUBROUTINE, CALLED 10 TIMES, CODE SIZE REDUCTION:15 WORDS
                 SUBOPT_0x85:
001bdb 89ae      	LDD  R26,Y+22
001bdc 89bf      	LDD  R27,Y+22+1
001bdd 940e 1d6a 	CALL __GETW1P
001bdf 9508      	RET
                 
                 ;OPTIMIZER ADDED SUBROUTINE, CALLED 5 TIMES, CODE SIZE REDUCTION:5 WORDS
                 SUBOPT_0x86:
001be0 93fa      	ST   -Y,R31
001be1 93ea      	ST   -Y,R30
001be2 8de8      	LDD  R30,Y+24
001be3 8df9      	LDD  R31,Y+24+1
001be4 9508      	RET
                 
                 ;OPTIMIZER ADDED SUBROUTINE, CALLED 3 TIMES, CODE SIZE REDUCTION:3 WORDS
                 SUBOPT_0x87:
001be5 89ae      	LDD  R26,Y+22
001be6 89bf      	LDD  R27,Y+22+1
001be7 961a      	ADIW R26,10
001be8 940e 1d6e 	CALL __GETD1P
001bea 9508      	RET
                 
                 ;OPTIMIZER ADDED SUBROUTINE, CALLED 3 TIMES, CODE SIZE REDUCTION:5 WORDS
                 SUBOPT_0x88:
001beb 89ee      	LDD  R30,Y+22
001bec 89ff      	LDD  R31,Y+22+1
                +
001bed 81a6     +LDD R26 , Z + 6
001bee 81b7     +LDD R27 , Z + 6 + 1
001bef 8580     +LDD R24 , Z + 6 + 2
001bf0 8591     +LDD R25 , Z + 6 + 3
                 	__GETD2Z 6
001bf1 9508      	RET
                 
                 ;OPTIMIZER ADDED SUBROUTINE, CALLED 2 TIMES, CODE SIZE REDUCTION:1 WORDS
                 SUBOPT_0x89:
001bf2 93fa      	ST   -Y,R31
001bf3 93ea      	ST   -Y,R30
001bf4 ddbf      	RCALL SUBOPT_0x31
001bf5 940c 0ace 	JMP  _create_chain_G102
                 
                 ;OPTIMIZER ADDED SUBROUTINE, CALLED 6 TIMES, CODE SIZE REDUCTION:17 WORDS
                 SUBOPT_0x8A:
001bf7 89ae      	LDD  R26,Y+22
001bf8 89bf      	LDD  R27,Y+22+1
001bf9 9614      	ADIW R26,4
001bfa 91ec      	LD   R30,X
001bfb 68e0      	ORI  R30,0x80
001bfc 93ec      	ST   X,R30
001bfd 9508      	RET
                 
                 ;OPTIMIZER ADDED SUBROUTINE, CALLED 2 TIMES, CODE SIZE REDUCTION:2 WORDS
                 SUBOPT_0x8B:
001bfe 81e1      	LDD  R30,Z+1
001bff 93ea      	ST   -Y,R30
001c00 89ef      	LDD  R30,Y+23
001c01 8df8      	LDD  R31,Y+23+1
001c02 96b0      	ADIW R30,32
001c03 93fa      	ST   -Y,R31
001c04 93ea      	ST   -Y,R30
001c05 9508      	RET
                 
                 ;OPTIMIZER ADDED SUBROUTINE, CALLED 3 TIMES, CODE SIZE REDUCTION:1 WORDS
                 SUBOPT_0x8C:
001c06 89ee      	LDD  R30,Y+22
001c07 89ff      	LDD  R31,Y+22+1
001c08 81e5      	LDD  R30,Z+5
001c09 e0f0      	LDI  R31,0
001c0a 9508      	RET
                 
                 ;OPTIMIZER ADDED SUBROUTINE, CALLED 2 TIMES, CODE SIZE REDUCTION:3 WORDS
                 SUBOPT_0x8D:
001c0b 89ee      	LDD  R30,Y+22
001c0c 89ff      	LDD  R31,Y+22+1
                +
001c0d 89a6     +LDD R26 , Z + 22
001c0e 89b7     +LDD R27 , Z + 22 + 1
001c0f 8d80     +LDD R24 , Z + 22 + 2
001c10 8d91     +LDD R25 , Z + 22 + 3
                 	__GETD2Z 22
001c11 cdf9      	RJMP SUBOPT_0x41
                 
                 ;OPTIMIZER ADDED SUBROUTINE, CALLED 9 TIMES, CODE SIZE REDUCTION:13 WORDS
                 SUBOPT_0x8E:
001c12 89ad      	LDD  R26,Y+21
001c13 89be      	LDD  R27,Y+21+1
001c14 940e 1d6a 	CALL __GETW1P
001c16 9508      	RET
                 
                 ;OPTIMIZER ADDED SUBROUTINE, CALLED 3 TIMES, CODE SIZE REDUCTION:3 WORDS
                 SUBOPT_0x8F:
001c17 89ad      	LDD  R26,Y+21
001c18 89be      	LDD  R27,Y+21+1
001c19 961a      	ADIW R26,10
001c1a 940e 1d6e 	CALL __GETD1P
001c1c 9508      	RET
                 
                 ;OPTIMIZER ADDED SUBROUTINE, CALLED 6 TIMES, CODE SIZE REDUCTION:7 WORDS
                 SUBOPT_0x90:
                +
001c1d 89a9     +LDD R26 , Y + 17
001c1e 89ba     +LDD R27 , Y + 17 + 1
001c1f 898b     +LDD R24 , Y + 17 + 2
001c20 899c     +LDD R25 , Y + 17 + 3
                 	__GETD2S 17
001c21 9508      	RET
                 
                 ;OPTIMIZER ADDED SUBROUTINE, CALLED 3 TIMES, CODE SIZE REDUCTION:1 WORDS
                 SUBOPT_0x91:
                +
001c22 8be9     +STD Y + 17 , R30
001c23 8bfa     +STD Y + 17 + 1 , R31
001c24 8b6b     +STD Y + 17 + 2 , R22
001c25 8b7c     +STD Y + 17 + 3 , R23
                 	__PUTD1S 17
001c26 9508      	RET
                 
                 ;OPTIMIZER ADDED SUBROUTINE, CALLED 2 TIMES, CODE SIZE REDUCTION:3 WORDS
                 SUBOPT_0x92:
                +
001c27 89ad     +LDD R26 , Y + 21
001c28 89be     +LDD R27 , Y + 21 + 1
001c29 9616     +ADIW R26 , 6
001c2a 940e 1d79+CALL __PUTDP1
                 	__PUTD1SNS 21,6
001c2c 89ad      	LDD  R26,Y+21
001c2d 89be      	LDD  R27,Y+21+1
001c2e 9508      	RET
                 
                 ;OPTIMIZER ADDED SUBROUTINE, CALLED 3 TIMES, CODE SIZE REDUCTION:1 WORDS
                 SUBOPT_0x93:
                +
001c2f 89e9     +LDD R30 , Y + 17
001c30 89fa     +LDD R31 , Y + 17 + 1
001c31 896b     +LDD R22 , Y + 17 + 2
001c32 897c     +LDD R23 , Y + 17 + 3
                 	__GETD1S 17
001c33 9508      	RET
                 
                 ;OPTIMIZER ADDED SUBROUTINE, CALLED 2 TIMES, CODE SIZE REDUCTION:5 WORDS
                 SUBOPT_0x94:
001c34 def7      	RCALL SUBOPT_0x6B
001c35 01df      	MOVW R26,R30
001c36 01cb      	MOVW R24,R22
                +
001c37 85e9     +LDD R30 , Y + 9
001c38 85fa     +LDD R31 , Y + 9 + 1
001c39 856b     +LDD R22 , Y + 9 + 2
001c3a 857c     +LDD R23 , Y + 9 + 3
                 	__GETD1S 9
001c3b 940e 1d37 	CALL __DIVD21U
001c3d 9508      	RET
                 
                 ;OPTIMIZER ADDED SUBROUTINE, CALLED 3 TIMES, CODE SIZE REDUCTION:1 WORDS
                 SUBOPT_0x95:
                +
001c3e 85e9     +LDD R30 , Y + 9
001c3f 85fa     +LDD R31 , Y + 9 + 1
001c40 856b     +LDD R22 , Y + 9 + 2
001c41 857c     +LDD R23 , Y + 9 + 3
                 	__GETD1S 9
001c42 9508      	RET
                 
                 ;OPTIMIZER ADDED SUBROUTINE, CALLED 2 TIMES, CODE SIZE REDUCTION:1 WORDS
                 SUBOPT_0x96:
001c43 940e 1d6e 	CALL __GETD1P
                +
001c45 87ed     +STD Y + 13 , R30
001c46 87fe     +STD Y + 13 + 1 , R31
001c47 876f     +STD Y + 13 + 2 , R22
001c48 8b78     +STD Y + 13 + 3 , R23
                 	__PUTD1S 13
001c49 9508      	RET
                 
                 ;OPTIMIZER ADDED SUBROUTINE, CALLED 6 TIMES, CODE SIZE REDUCTION:7 WORDS
                 SUBOPT_0x97:
                +
001c4a 85ed     +LDD R30 , Y + 13
001c4b 85fe     +LDD R31 , Y + 13 + 1
001c4c 856f     +LDD R22 , Y + 13 + 2
001c4d 8978     +LDD R23 , Y + 13 + 3
                 	__GETD1S 13
001c4e 9508      	RET
                 
                 ;OPTIMIZER ADDED SUBROUTINE, CALLED 3 TIMES, CODE SIZE REDUCTION:1 WORDS
                 SUBOPT_0x98:
                +
001c4f 87ed     +STD Y + 13 , R30
001c50 87fe     +STD Y + 13 + 1 , R31
001c51 876f     +STD Y + 13 + 2 , R22
001c52 8b78     +STD Y + 13 + 3 , R23
                 	__PUTD1S 13
001c53 9508      	RET
                 
                 ;OPTIMIZER ADDED SUBROUTINE, CALLED 5 TIMES, CODE SIZE REDUCTION:5 WORDS
                 SUBOPT_0x99:
                +
001c54 85ad     +LDD R26 , Y + 13
001c55 85be     +LDD R27 , Y + 13 + 1
001c56 858f     +LDD R24 , Y + 13 + 2
001c57 8998     +LDD R25 , Y + 13 + 3
                 	__GETD2S 13
001c58 9508      	RET
                 
                 ;OPTIMIZER ADDED SUBROUTINE, CALLED 7 TIMES, CODE SIZE REDUCTION:21 WORDS
                 SUBOPT_0x9A:
001c59 89ad      	LDD  R26,Y+21
001c5a 89be      	LDD  R27,Y+21+1
001c5b 9614      	ADIW R26,4
001c5c 91ec      	LD   R30,X
001c5d 68e0      	ORI  R30,0x80
001c5e 93ec      	ST   X,R30
001c5f 9508      	RET
                 
                 ;OPTIMIZER ADDED SUBROUTINE, CALLED 2 TIMES, CODE SIZE REDUCTION:3 WORDS
                 SUBOPT_0x9B:
001c60 dfe9      	RCALL SUBOPT_0x97
                +
001c61 89ad     +LDD R26 , Y + 21
001c62 89be     +LDD R27 , Y + 21 + 1
001c63 9652     +ADIW R26 , 18
001c64 940e 1d79+CALL __PUTDP1
                 	__PUTD1SNS 21,18
001c66 9508      	RET
                 
                 ;OPTIMIZER ADDED SUBROUTINE, CALLED 3 TIMES, CODE SIZE REDUCTION:5 WORDS
                 SUBOPT_0x9C:
001c67 93fa      	ST   -Y,R31
001c68 93ea      	ST   -Y,R30
                +
001c69 85af     +LDD R26 , Y + 15
001c6a 89b8     +LDD R27 , Y + 15 + 1
001c6b 8989     +LDD R24 , Y + 15 + 2
001c6c 899a     +LDD R25 , Y + 15 + 3
                 	__GETD2S 15
001c6d 9508      	RET
                 
                 ;OPTIMIZER ADDED SUBROUTINE, CALLED 2 TIMES, CODE SIZE REDUCTION:2 WORDS
                 SUBOPT_0x9D:
001c6e 89ed      	LDD  R30,Y+21
001c6f 89fe      	LDD  R31,Y+21+1
001c70 9636      	ADIW R30,6
001c71 010f      	MOVW R0,R30
001c72 01df      	MOVW R26,R30
001c73 940e 1d6e 	CALL __GETD1P
001c75 9508      	RET
                 
                 ;OPTIMIZER ADDED SUBROUTINE, CALLED 2 TIMES, CODE SIZE REDUCTION:1 WORDS
                 SUBOPT_0x9E:
001c76 89ed      	LDD  R30,Y+21
001c77 89fe      	LDD  R31,Y+21+1
                +
001c78 81a6     +LDD R26 , Z + 6
001c79 81b7     +LDD R27 , Z + 6 + 1
001c7a 8580     +LDD R24 , Z + 6 + 2
001c7b 8591     +LDD R25 , Z + 6 + 3
                 	__GETD2Z 6
001c7c 9508      	RET
                 
                 
                 	.CSEG
                 _delay_ms:
001c7d 9610      	adiw r26,0
001c7e f039      	breq __delay_ms1
                 __delay_ms0:
                +
001c7f ed80     +LDI R24 , LOW ( 0x7D0 )
001c80 e097     +LDI R25 , HIGH ( 0x7D0 )
                +__DELAY_USW_LOOP :
001c81 9701     +SBIW R24 , 1
001c82 f7f1     +BRNE __DELAY_USW_LOOP
                 	__DELAY_USW 0x7D0
001c83 95a8      	wdr
001c84 9711      	sbiw r26,1
001c85 f7c9      	brne __delay_ms0
                 __delay_ms1:
001c86 9508      	ret
                 
                 __ADDD12:
001c87 0fea      	ADD  R30,R26
001c88 1ffb      	ADC  R31,R27
001c89 1f68      	ADC  R22,R24
001c8a 1f79      	ADC  R23,R25
001c8b 9508      	RET
                 
                 __ADDD21:
001c8c 0fae      	ADD  R26,R30
001c8d 1fbf      	ADC  R27,R31
001c8e 1f86      	ADC  R24,R22
001c8f 1f97      	ADC  R25,R23
001c90 9508      	RET
                 
                 __SUBD12:
001c91 1bea      	SUB  R30,R26
001c92 0bfb      	SBC  R31,R27
001c93 0b68      	SBC  R22,R24
001c94 0b79      	SBC  R23,R25
001c95 9508      	RET
                 
                 __SUBD21:
001c96 1bae      	SUB  R26,R30
001c97 0bbf      	SBC  R27,R31
001c98 0b86      	SBC  R24,R22
001c99 0b97      	SBC  R25,R23
001c9a 9508      	RET
                 
                 __ANDD12:
001c9b 23ea      	AND  R30,R26
001c9c 23fb      	AND  R31,R27
001c9d 2368      	AND  R22,R24
001c9e 2379      	AND  R23,R25
001c9f 9508      	RET
                 
                 __ORD12:
001ca0 2bea      	OR   R30,R26
001ca1 2bfb      	OR   R31,R27
001ca2 2b68      	OR   R22,R24
001ca3 2b79      	OR   R23,R25
001ca4 9508      	RET
                 
                 __ANEGW1:
001ca5 95f1      	NEG  R31
001ca6 95e1      	NEG  R30
001ca7 40f0      	SBCI R31,0
001ca8 9508      	RET
                 
                 __LSLD12:
001ca9 23ee      	TST  R30
001caa 2e0e      	MOV  R0,R30
001cab 01fd      	MOVW R30,R26
001cac 01bc      	MOVW R22,R24
001cad f031      	BREQ __LSLD12R
                 __LSLD12L:
001cae 0fee      	LSL  R30
001caf 1fff      	ROL  R31
001cb0 1f66      	ROL  R22
001cb1 1f77      	ROL  R23
001cb2 940a      	DEC  R0
001cb3 f7d1      	BRNE __LSLD12L
                 __LSLD12R:
001cb4 9508      	RET
                 
                 __LSRD12:
001cb5 23ee      	TST  R30
001cb6 2e0e      	MOV  R0,R30
001cb7 01fd      	MOVW R30,R26
001cb8 01bc      	MOVW R22,R24
001cb9 f031      	BREQ __LSRD12R
                 __LSRD12L:
001cba 9576      	LSR  R23
001cbb 9567      	ROR  R22
001cbc 95f7      	ROR  R31
001cbd 95e7      	ROR  R30
001cbe 940a      	DEC  R0
001cbf f7d1      	BRNE __LSRD12L
                 __LSRD12R:
001cc0 9508      	RET
                 
                 __LSLW4:
001cc1 0fee      	LSL  R30
001cc2 1fff      	ROL  R31
                 __LSLW3:
001cc3 0fee      	LSL  R30
001cc4 1fff      	ROL  R31
                 __LSLW2:
001cc5 0fee      	LSL  R30
001cc6 1fff      	ROL  R31
001cc7 0fee      	LSL  R30
001cc8 1fff      	ROL  R31
001cc9 9508      	RET
                 
                 __LSRW4:
001cca 95f6      	LSR  R31
001ccb 95e7      	ROR  R30
                 __LSRW3:
001ccc 95f6      	LSR  R31
001ccd 95e7      	ROR  R30
                 __LSRW2:
001cce 95f6      	LSR  R31
001ccf 95e7      	ROR  R30
001cd0 95f6      	LSR  R31
001cd1 95e7      	ROR  R30
001cd2 9508      	RET
                 
                 __LSLD1:
001cd3 0fee      	LSL  R30
001cd4 1fff      	ROL  R31
001cd5 1f66      	ROL  R22
001cd6 1f77      	ROL  R23
001cd7 9508      	RET
                 
                 __LSRD16:
001cd8 2fe6      	MOV  R30,R22
001cd9 2ff7      	MOV  R31,R23
001cda e060      	LDI  R22,0
001cdb e070      	LDI  R23,0
001cdc 9508      	RET
                 
                 __LSLD16:
001cdd 2f6e      	MOV  R22,R30
001cde 2f7f      	MOV  R23,R31
001cdf e0e0      	LDI  R30,0
001ce0 e0f0      	LDI  R31,0
001ce1 9508      	RET
                 
                 __CWD1:
001ce2 2f6f      	MOV  R22,R31
001ce3 0f66      	ADD  R22,R22
001ce4 0b66      	SBC  R22,R22
001ce5 2f76      	MOV  R23,R22
001ce6 9508      	RET
                 
                 __CWD2:
001ce7 2f8b      	MOV  R24,R27
001ce8 0f88      	ADD  R24,R24
001ce9 0b88      	SBC  R24,R24
001cea 2f98      	MOV  R25,R24
001ceb 9508      	RET
                 
                 __COMD1:
001cec 95e0      	COM  R30
001ced 95f0      	COM  R31
001cee 9560      	COM  R22
001cef 9570      	COM  R23
001cf0 9508      	RET
                 
                 __MULW12U:
001cf1 9ffa      	MUL  R31,R26
001cf2 2df0      	MOV  R31,R0
001cf3 9feb      	MUL  R30,R27
001cf4 0df0      	ADD  R31,R0
001cf5 9fea      	MUL  R30,R26
001cf6 2de0      	MOV  R30,R0
001cf7 0df1      	ADD  R31,R1
001cf8 9508      	RET
                 
                 __MULD12U:
001cf9 9f7a      	MUL  R23,R26
001cfa 2d70      	MOV  R23,R0
001cfb 9f6b      	MUL  R22,R27
001cfc 0d70      	ADD  R23,R0
001cfd 9ff8      	MUL  R31,R24
001cfe 0d70      	ADD  R23,R0
001cff 9fe9      	MUL  R30,R25
001d00 0d70      	ADD  R23,R0
001d01 9f6a      	MUL  R22,R26
001d02 2d60      	MOV  R22,R0
001d03 0d71      	ADD  R23,R1
001d04 9ffb      	MUL  R31,R27
001d05 0d60      	ADD  R22,R0
001d06 1d71      	ADC  R23,R1
001d07 9fe8      	MUL  R30,R24
001d08 0d60      	ADD  R22,R0
001d09 1d71      	ADC  R23,R1
001d0a 2788      	CLR  R24
001d0b 9ffa      	MUL  R31,R26
001d0c 2df0      	MOV  R31,R0
001d0d 0d61      	ADD  R22,R1
001d0e 1f78      	ADC  R23,R24
001d0f 9feb      	MUL  R30,R27
001d10 0df0      	ADD  R31,R0
001d11 1d61      	ADC  R22,R1
001d12 1f78      	ADC  R23,R24
001d13 9fea      	MUL  R30,R26
001d14 2de0      	MOV  R30,R0
001d15 0df1      	ADD  R31,R1
001d16 1f68      	ADC  R22,R24
001d17 1f78      	ADC  R23,R24
001d18 9508      	RET
                 
                 __MULB1W2U:
001d19 2f6e      	MOV  R22,R30
001d1a 9f6a      	MUL  R22,R26
001d1b 01f0      	MOVW R30,R0
001d1c 9f6b      	MUL  R22,R27
001d1d 0df0      	ADD  R31,R0
001d1e 9508      	RET
                 
                 __MULW12:
001d1f d03c      	RCALL __CHKSIGNW
001d20 dfd0      	RCALL __MULW12U
001d21 f40e      	BRTC __MULW121
001d22 df82      	RCALL __ANEGW1
                 __MULW121:
001d23 9508      	RET
                 
                 __DIVW21U:
001d24 2400      	CLR  R0
001d25 2411      	CLR  R1
001d26 e190      	LDI  R25,16
                 __DIVW21U1:
001d27 0faa      	LSL  R26
001d28 1fbb      	ROL  R27
001d29 1c00      	ROL  R0
001d2a 1c11      	ROL  R1
001d2b 1a0e      	SUB  R0,R30
001d2c 0a1f      	SBC  R1,R31
001d2d f418      	BRCC __DIVW21U2
001d2e 0e0e      	ADD  R0,R30
001d2f 1e1f      	ADC  R1,R31
001d30 c001      	RJMP __DIVW21U3
                 __DIVW21U2:
001d31 60a1      	SBR  R26,1
                 __DIVW21U3:
001d32 959a      	DEC  R25
001d33 f799      	BRNE __DIVW21U1
001d34 01fd      	MOVW R30,R26
001d35 01d0      	MOVW R26,R0
001d36 9508      	RET
                 
                 __DIVD21U:
001d37 933f      	PUSH R19
001d38 934f      	PUSH R20
001d39 935f      	PUSH R21
001d3a 2400      	CLR  R0
001d3b 2411      	CLR  R1
001d3c 2744      	CLR  R20
001d3d 2755      	CLR  R21
001d3e e230      	LDI  R19,32
                 __DIVD21U1:
001d3f 0faa      	LSL  R26
001d40 1fbb      	ROL  R27
001d41 1f88      	ROL  R24
001d42 1f99      	ROL  R25
001d43 1c00      	ROL  R0
001d44 1c11      	ROL  R1
001d45 1f44      	ROL  R20
001d46 1f55      	ROL  R21
001d47 1a0e      	SUB  R0,R30
001d48 0a1f      	SBC  R1,R31
001d49 0b46      	SBC  R20,R22
001d4a 0b57      	SBC  R21,R23
001d4b f428      	BRCC __DIVD21U2
001d4c 0e0e      	ADD  R0,R30
001d4d 1e1f      	ADC  R1,R31
001d4e 1f46      	ADC  R20,R22
001d4f 1f57      	ADC  R21,R23
001d50 c001      	RJMP __DIVD21U3
                 __DIVD21U2:
001d51 60a1      	SBR  R26,1
                 __DIVD21U3:
001d52 953a      	DEC  R19
001d53 f759      	BRNE __DIVD21U1
001d54 01fd      	MOVW R30,R26
001d55 01bc      	MOVW R22,R24
001d56 01d0      	MOVW R26,R0
001d57 01ca      	MOVW R24,R20
001d58 915f      	POP  R21
001d59 914f      	POP  R20
001d5a 913f      	POP  R19
001d5b 9508      	RET
                 
                 __CHKSIGNW:
001d5c 94e8      	CLT
001d5d fff7      	SBRS R31,7
001d5e c002      	RJMP __CHKSW1
001d5f df45      	RCALL __ANEGW1
001d60 9468      	SET
                 __CHKSW1:
001d61 ffb7      	SBRS R27,7
001d62 c006      	RJMP __CHKSW2
001d63 95a0      	COM  R26
001d64 95b0      	COM  R27
001d65 9611      	ADIW R26,1
001d66 f800      	BLD  R0,0
001d67 9403      	INC  R0
001d68 fa00      	BST  R0,0
                 __CHKSW2:
001d69 9508      	RET
                 
                 __GETW1P:
001d6a 91ed      	LD   R30,X+
001d6b 91fc      	LD   R31,X
001d6c 9711      	SBIW R26,1
001d6d 9508      	RET
                 
                 __GETD1P:
001d6e 91ed      	LD   R30,X+
001d6f 91fd      	LD   R31,X+
001d70 916d      	LD   R22,X+
001d71 917c      	LD   R23,X
001d72 9713      	SBIW R26,3
001d73 9508      	RET
                 
                 __GETD1P_INC:
001d74 91ed      	LD   R30,X+
001d75 91fd      	LD   R31,X+
001d76 916d      	LD   R22,X+
001d77 917d      	LD   R23,X+
001d78 9508      	RET
                 
                 __PUTDP1:
001d79 93ed      	ST   X+,R30
001d7a 93fd      	ST   X+,R31
001d7b 936d      	ST   X+,R22
001d7c 937c      	ST   X,R23
001d7d 9508      	RET
                 
                 __PUTDP1_DEC:
001d7e 937e      	ST   -X,R23
001d7f 936e      	ST   -X,R22
001d80 93fe      	ST   -X,R31
001d81 93ee      	ST   -X,R30
001d82 9508      	RET
                 
                 __GETD1S0:
001d83 81e8      	LD   R30,Y
001d84 81f9      	LDD  R31,Y+1
001d85 816a      	LDD  R22,Y+2
001d86 817b      	LDD  R23,Y+3
001d87 9508      	RET
                 
                 __GETD2S0:
001d88 81a8      	LD   R26,Y
001d89 81b9      	LDD  R27,Y+1
001d8a 818a      	LDD  R24,Y+2
001d8b 819b      	LDD  R25,Y+3
001d8c 9508      	RET
                 
                 __PUTD1S0:
001d8d 83e8      	ST   Y,R30
001d8e 83f9      	STD  Y+1,R31
001d8f 836a      	STD  Y+2,R22
001d90 837b      	STD  Y+3,R23
001d91 9508      	RET
                 
                 __PUTDZ20:
001d92 83a0      	ST   Z,R26
001d93 83b1      	STD  Z+1,R27
001d94 8382      	STD  Z+2,R24
001d95 8393      	STD  Z+3,R25
001d96 9508      	RET
                 
                 __PUTPARD1:
001d97 937a      	ST   -Y,R23
001d98 936a      	ST   -Y,R22
001d99 93fa      	ST   -Y,R31
001d9a 93ea      	ST   -Y,R30
001d9b 9508      	RET
                 
                 __PUTPARD2:
001d9c 939a      	ST   -Y,R25
001d9d 938a      	ST   -Y,R24
001d9e 93ba      	ST   -Y,R27
001d9f 93aa      	ST   -Y,R26
001da0 9508      	RET
                 
                 __SWAPD12:
001da1 2e18      	MOV  R1,R24
001da2 2f86      	MOV  R24,R22
001da3 2d61      	MOV  R22,R1
001da4 2e19      	MOV  R1,R25
001da5 2f97      	MOV  R25,R23
001da6 2d71      	MOV  R23,R1
                 
                 __SWAPW12:
001da7 2e1b      	MOV  R1,R27
001da8 2fbf      	MOV  R27,R31
001da9 2df1      	MOV  R31,R1
                 
                 __SWAPB12:
001daa 2e1a      	MOV  R1,R26
001dab 2fae      	MOV  R26,R30
001dac 2de1      	MOV  R30,R1
001dad 9508      	RET
                 
                 __CPD10:
001dae 9730      	SBIW R30,0
001daf 4060      	SBCI R22,0
001db0 4070      	SBCI R23,0
001db1 9508      	RET
                 
                 __CPD02:
001db2 2400      	CLR  R0
001db3 160a      	CP   R0,R26
001db4 060b      	CPC  R0,R27
001db5 0608      	CPC  R0,R24
001db6 0609      	CPC  R0,R25
001db7 9508      	RET
                 
                 __CPD12:
001db8 17ea      	CP   R30,R26
001db9 07fb      	CPC  R31,R27
001dba 0768      	CPC  R22,R24
001dbb 0779      	CPC  R23,R25
001dbc 9508      	RET
                 
                 __CPD21:
001dbd 17ae      	CP   R26,R30
001dbe 07bf      	CPC  R27,R31
001dbf 0786      	CPC  R24,R22
001dc0 0797      	CPC  R25,R23
001dc1 9508      	RET
                 
                 __SAVELOCR6:
001dc2 935a      	ST   -Y,R21
                 __SAVELOCR5:
001dc3 934a      	ST   -Y,R20
                 __SAVELOCR4:
001dc4 933a      	ST   -Y,R19
                 __SAVELOCR3:
001dc5 932a      	ST   -Y,R18
                 __SAVELOCR2:
001dc6 931a      	ST   -Y,R17
001dc7 930a      	ST   -Y,R16
001dc8 9508      	RET
                 
                 __LOADLOCR6:
001dc9 815d      	LDD  R21,Y+5
                 __LOADLOCR5:
001dca 814c      	LDD  R20,Y+4
                 __LOADLOCR4:
001dcb 813b      	LDD  R19,Y+3
                 __LOADLOCR3:
001dcc 812a      	LDD  R18,Y+2
                 __LOADLOCR2:
001dcd 8119      	LDD  R17,Y+1
001dce 8108      	LD   R16,Y
001dcf 9508      	RET
                 
                 ;END OF CODE MARKER
                 __END_OF_CODE:


RESOURCE USE INFORMATION
------------------------

Notice:
The register and instruction counts are symbol table hit counts,
and hence implicitly used resources are not counted, eg, the
'lpm' instruction without operands implicitly uses r0 and z,
none of which are counted.

x,y,z are separate entities in the symbol table and are
counted separately from r26..r31 here.

.dseg memory usage only counts static data declared with .byte

ATmega32A register use summary:
r0 :  88 r1 :  29 r2 :   0 r3 :   0 r4 :   0 r5 :   7 r6 :   0 r7 :   0 
r8 :   4 r9 :   4 r10:   0 r11:   2 r12:   0 r13:   0 r14:   0 r15:   2 
r16: 112 r17: 176 r18: 100 r19:  67 r20:  36 r21:  36 r22: 192 r23: 152 
r24: 180 r25: 130 r26: 925 r27: 463 r28:  78 r29:   1 r30:1598 r31: 560 
x  : 158 y  :1545 z  : 175 
Registers used: 26 out of 35 (74.3%)

ATmega32A instruction use summary:
.lds  :   0 .lds.l:   0 .sts  :   0 .sts.l:   0 adc   :  43 add   :  48 
adiw  : 258 and   :   6 andi  :  92 asr   :   1 bclr  :   0 bld   :   1 
brbc  :   0 brbs  :   0 brcc  :   3 brcs  :   0 break :   0 breq  : 173 
brge  :   2 brhc  :   0 brhs  :   0 brid  :   0 brie  :   0 brlo  :  37 
brlt  :   1 brmi  :   0 brne  : 181 brpl  :   1 brsh  :  28 brtc  :   1 
brts  :   1 brvc  :   0 brvs  :   0 bset  :   0 bst   :   1 call  : 908 
cbi   :  18 cbr   :   0 clc   :   0 clh   :   0 cli   :   1 cln   :   0 
clr   :  73 cls   :   0 clt   :   2 clv   :   0 clz   :   0 com   :   8 
cp    :  28 cpc   :  64 cpi   : 195 cpse  :   0 dec   :   9 des   :   0 
eor   :   2 fmul  :   0 fmuls :   0 fmulsu:   0 icall :   2 ijmp  :   0 
in    :  16 inc   :   5 jmp   :  41 ld    : 122 ldd   :1183 ldi   : 709 
lds   :  35 lpm   :   9 lsl   :  20 lsr   :  16 mov   : 122 movw  : 183 
mul   :  16 muls  :   0 mulsu :   0 neg   :   2 nop   :   0 or    :  16 
ori   :  18 out   :  85 pop   :  71 push  :  71 rcall : 116 ret   : 221 
reti  :   1 rjmp  : 328 rol   :  25 ror   :  10 sbc   :  20 sbci  :  65 
sbi   :  17 sbic  :   8 sbis  :  29 sbiw  :  58 sbr   :   2 sbrc  :   3 
sbrs  :   4 sec   :   0 seh   :   0 sei   :   1 sen   :   0 ser   :   0 
ses   :   0 set   :   2 sev   :   0 sez   :   0 sleep :   0 spm   :   0 
st    : 379 std   : 186 sts   :  14 sub   :  13 subi  :  66 swap  :   6 
tst   :   3 wdr   :   1 
Instructions used: 74 out of 116 (63.8%)

ATmega32A memory use summary [bytes]:
Segment   Begin    End      Code   Data   Used    Size   Use%
---------------------------------------------------------------
[.cseg] 0x000000 0x003ba0  15006    258  15264   32768  46.6%
[.dseg] 0x000060 0x00073b      0   1243   1243    2048  60.7%
[.eseg] 0x000000 0x000000      0      0      0    1024   0.0%

Assembly complete, 0 errors, 12 warnings
